ARM Linker, 4.1 [Build 567] [Professional]

==============================================================================

Section Cross References

    stm32f10x_it.o(i.HardFault_Handler) refers to main.o(i.SoftReset) for SoftReset
    stm32f10x_it.o(i.SysTick_Handler) refers to systick.o(i.SysTick_HandlerService) for SysTick_HandlerService
    stm32f10x_it.o(i.USB_HP_CAN1_TX_IRQHandler) refers to usb_int.o(i.CTR_HP) for CTR_HP
    stm32f10x_it.o(i.USB_LP_CAN1_RX0_IRQHandler) refers to usb_istr.o(i.USB_Istr) for USB_Istr
    main.o(i.IWDG_Configuration) refers to stm32f10x_iwdg.o(i.IWDG_WriteAccessCmd) for IWDG_WriteAccessCmd
    main.o(i.IWDG_Configuration) refers to stm32f10x_iwdg.o(i.IWDG_SetPrescaler) for IWDG_SetPrescaler
    main.o(i.IWDG_Configuration) refers to stm32f10x_iwdg.o(i.IWDG_SetReload) for IWDG_SetReload
    main.o(i.IWDG_Configuration) refers to stm32f10x_iwdg.o(i.IWDG_ReloadCounter) for IWDG_ReloadCounter
    main.o(i.IWDG_Configuration) refers to stm32f10x_iwdg.o(i.IWDG_Enable) for IWDG_Enable
    main.o(i.USB_Ctrl) refers to hw_config.o(i.Set_USBClock) for Set_USBClock
    main.o(i.USB_Ctrl) refers to hw_config.o(i.USB_Interrupts_Config) for USB_Interrupts_Config
    main.o(i.USB_Ctrl) refers to usb_init.o(i.USB_Init) for USB_Init
    main.o(i.USB_Ctrl) refers to hw_config.o(i.USB_Disconnect_Config) for USB_Disconnect_Config
    main.o(i.USB_Ctrl) refers to hw_config.o(i.MAL_Config) for MAL_Config
    main.o(i.USB_Ctrl) refers to stm32f10x_rcc.o(i.RCC_APB1PeriphClockCmd) for RCC_APB1PeriphClockCmd
    main.o(i.USB_Ctrl) refers to hw_config.o(i.USB_NotConfigured_LED) for USB_NotConfigured_LED
    main.o(i.USB_Ctrl) refers to main.o(.data) for usb_device_onoff
    main.o(i.main) refers to system_stm32f10x.o(i.SystemInit) for SystemInit
    main.o(i.main) refers to misc.o(i.NVIC_PriorityGroupConfig) for NVIC_PriorityGroupConfig
    main.o(i.main) refers to systick.o(i.SysTick_Init) for SysTick_Init
    main.o(i.main) refers to system.o(i.hw_io_init) for hw_io_init
    main.o(i.main) refers to uart1.o(i.UART1_Configuration) for UART1_Configuration
    main.o(i.main) refers to uart2.o(i.UART2_Configuration) for UART2_Configuration
    main.o(i.main) refers to uart3.o(i.UART3_Configuration) for UART3_Configuration
    main.o(i.main) refers to printfa.o(i.__0printf) for __2printf
    main.o(i.main) refers to system.o(i.led_taskinit) for led_taskinit
    main.o(i.main) refers to system.o(i.ADC_taskinit) for ADC_taskinit
    main.o(i.main) refers to system.o(i.ADC_task) for ADC_task
    main.o(i.main) refers to f2d.o(.text) for __aeabi_f2d
    main.o(i.main) refers to cdrcmple.o(.text) for __aeabi_cdrcmple
    main.o(i.main) refers to system.o(i.hw_io_ctrl) for hw_io_ctrl
    main.o(i.main) refers to main.o(i.USB_Ctrl) for USB_Ctrl
    main.o(i.main) refers to system.o(i.led_taskctrl) for led_taskctrl
    main.o(i.main) refers to main.o(i.SoftReset) for SoftReset
    main.o(i.main) refers to w25xx.o(i.w25xx_init) for w25xx_init
    main.o(i.main) refers to gsensor.o(i.MBA220init) for MBA220init
    main.o(i.main) refers to ff.o(i.disc_mount) for disc_mount
    main.o(i.main) refers to sys_cfg.o(i.check_itarcker_cfg) for check_itarcker_cfg
    main.o(i.main) refers to sys_cfg.o(i.load_sys_config) for load_sys_config
    main.o(i.main) refers to gps_receive_task.o(i.gps_taskinit) for gps_taskinit
    main.o(i.main) refers to gpx_record_task.o(.text) for gpx_record_taskinit
    main.o(i.main) refers to let_us_go.o(i.iTrack_taskinit) for iTrack_taskinit
    main.o(i.main) refers to sim800.o(i.gprs_taskinit) for gprs_taskinit
    main.o(i.main) refers to yeelink.o(i.yeelink_taskinit) for yeelink_taskinit
    main.o(i.main) refers to system.o(i.beep_taskinit) for beep_taskinit
    main.o(i.main) refers to gsensor.o(i.gSensor_taskinit) for gSensor_taskinit
    main.o(i.main) refers to system.o(i.system_taskinit) for system_taskinit
    main.o(i.main) refers to main.o(i.IWDG_Configuration) for IWDG_Configuration
    main.o(i.main) refers to stm32f10x_rcc.o(i.RCC_GetFlagStatus) for RCC_GetFlagStatus
    main.o(i.main) refers to stm32f10x_rcc.o(i.RCC_ClearFlag) for RCC_ClearFlag
    main.o(i.main) refers to system.o(i.beep_taskctrl) for beep_taskctrl
    main.o(i.main) refers to stm32f10x_iwdg.o(i.IWDG_ReloadCounter) for IWDG_ReloadCounter
    main.o(i.main) refers to gps_receive_task.o(i.gps_task) for gps_task
    main.o(i.main) refers to system.o(i.system_task) for system_task
    main.o(i.main) refers to let_us_go.o(i.iTrack_task) for iTrack_task
    main.o(i.main) refers to sim800.o(i.gprs_task) for gprs_task
    main.o(i.main) refers to yeelink.o(i.yeelink_task) for yeelink_task
    main.o(i.main) refers to main.o(.constdata) for version_msg
    main.o(i.main) refers to system.o(.data) for g_BatteryVoltage
    main.o(i.main) refers to main.o(.data) for usb_device_onoff
    main.o(i.main) refers to system.o(.bss) for g_System
    sys_cfg.o(i.cfg_get_line) refers to sys_cfg.o(.data) for cfg_rd_p
    sys_cfg.o(i.cfg_get_segment) refers to my_string.o(i.ischar) for ischar
    sys_cfg.o(i.check_flash_cfg) refers to printfa.o(i.__0printf) for __2printf
    sys_cfg.o(i.check_flash_cfg) refers to sys_cfg.o(.data) for cfg_checksum
    sys_cfg.o(i.check_itarcker_cfg) refers to sys_cfg.o(i.check_flash_cfg) for check_flash_cfg
    sys_cfg.o(i.check_itarcker_cfg) refers to printfa.o(i.__0printf) for __2printf
    sys_cfg.o(i.check_itarcker_cfg) refers to ff.o(i.f_stat) for f_stat
    sys_cfg.o(i.check_itarcker_cfg) refers to ff.o(i.f_open) for f_open
    sys_cfg.o(i.check_itarcker_cfg) refers to ff.o(i.f_close) for f_close
    sys_cfg.o(i.check_itarcker_cfg) refers to sys_cfg.o(i.cpy_cfg_to_flash) for cpy_cfg_to_flash
    sys_cfg.o(i.check_itarcker_cfg) refers to sys_cfg.o(.data) for cfg_datetime
    sys_cfg.o(i.cpy_cfg_to_flash) refers to stm32f10x_flash.o(i.FLASH_Unlock) for FLASH_Unlock
    sys_cfg.o(i.cpy_cfg_to_flash) refers to stm32f10x_flash.o(i.FLASH_ErasePage) for FLASH_ErasePage
    sys_cfg.o(i.cpy_cfg_to_flash) refers to ff.o(i.f_read) for f_read
    sys_cfg.o(i.cpy_cfg_to_flash) refers to printfa.o(i.__0printf) for __2printf
    sys_cfg.o(i.cpy_cfg_to_flash) refers to stm32f10x_flash.o(i.FLASH_ProgramWord) for FLASH_ProgramWord
    sys_cfg.o(i.cpy_cfg_to_flash) refers to system.o(i.beep_taskctrl) for beep_taskctrl
    sys_cfg.o(i.cpy_cfg_to_flash) refers to stm32f10x_flash.o(i.FLASH_Lock) for FLASH_Lock
    sys_cfg.o(i.load_sys_config) refers to system.o(i.syscfg_init) for syscfg_init
    sys_cfg.o(i.load_sys_config) refers to sys_cfg.o(i.check_flash_cfg) for check_flash_cfg
    sys_cfg.o(i.load_sys_config) refers to strstr.o(.text) for strstr
    sys_cfg.o(i.load_sys_config) refers to yeelink.o(i.yeelink_http_init) for yeelink_http_init
    sys_cfg.o(i.load_sys_config) refers to strcat.o(.text) for strcat
    sys_cfg.o(i.load_sys_config) refers to strlen.o(.text) for strlen
    sys_cfg.o(i.load_sys_config) refers to sys_cfg.o(i.cfg_get_line) for cfg_get_line
    sys_cfg.o(i.load_sys_config) refers to printfa.o(i.__0printf) for __2printf
    sys_cfg.o(i.load_sys_config) refers to sys_cfg.o(i.cfg_get_segment) for cfg_get_segment
    sys_cfg.o(i.load_sys_config) refers to my_string.o(i.isdecstring) for isdecstring
    sys_cfg.o(i.load_sys_config) refers to my_string.o(i.DecStr2Int) for DecStr2Int
    sys_cfg.o(i.load_sys_config) refers to system.o(.bss) for g_System
    sys_cfg.o(i.load_sys_config) refers to sys_cfg.o(.data) for cfg_checksum
    sys_cfg.o(i.load_sys_config) refers to yeelink.o(.bss) for yeelink_server
    system_stm32f10x.o(i.SetSysClock) refers to system_stm32f10x.o(i.SetSysClockTo48) for SetSysClockTo48
    system_stm32f10x.o(i.SystemCoreClockUpdate) refers to system_stm32f10x.o(.data) for SystemCoreClock
    system_stm32f10x.o(i.SystemInit) refers to system_stm32f10x.o(i.SetSysClock) for SetSysClock
    hw_config.o(i.Enter_LowPowerMode) refers to usb_pwr.o(.data) for bDeviceState
    hw_config.o(i.Get_SerialNum) refers to hw_config.o(i.IntToUnicode) for IntToUnicode
    hw_config.o(i.Get_SerialNum) refers to usb_desc.o(.data) for MASS_StringSerial
    hw_config.o(i.Leave_LowPowerMode) refers to usb_init.o(.bss) for Device_Info
    hw_config.o(i.Leave_LowPowerMode) refers to usb_pwr.o(.data) for bDeviceState
    hw_config.o(i.Led_Config) refers to system.o(i.led_taskctrl) for led_taskctrl
    hw_config.o(i.Led_RW_OFF) refers to system.o(i.led_taskctrl) for led_taskctrl
    hw_config.o(i.Led_RW_ON) refers to system.o(i.led_taskctrl) for led_taskctrl
    hw_config.o(i.MAL_Config) refers to mass_mal.o(i.MAL_Init) for MAL_Init
    hw_config.o(i.Set_System) refers to hw_config.o(i.USB_Disconnect_Config) for USB_Disconnect_Config
    hw_config.o(i.Set_System) refers to hw_config.o(i.MAL_Config) for MAL_Config
    hw_config.o(i.Set_USBClock) refers to stm32f10x_rcc.o(i.RCC_USBCLKConfig) for RCC_USBCLKConfig
    hw_config.o(i.Set_USBClock) refers to stm32f10x_rcc.o(i.RCC_APB1PeriphClockCmd) for RCC_APB1PeriphClockCmd
    hw_config.o(i.USB_Cable_Config) refers to stm32f10x_gpio.o(i.GPIO_SetBits) for GPIO_SetBits
    hw_config.o(i.USB_Cable_Config) refers to stm32f10x_gpio.o(i.GPIO_ResetBits) for GPIO_ResetBits
    hw_config.o(i.USB_Configured_LED) refers to system.o(i.led_taskctrl) for led_taskctrl
    hw_config.o(i.USB_Disconnect_Config) refers to stm32f10x_rcc.o(i.RCC_APB2PeriphClockCmd) for RCC_APB2PeriphClockCmd
    hw_config.o(i.USB_Disconnect_Config) refers to stm32f10x_gpio.o(i.GPIO_Init) for GPIO_Init
    hw_config.o(i.USB_Interrupts_Config) refers to misc.o(i.NVIC_Init) for NVIC_Init
    hw_config.o(i.USB_NotConfigured_LED) refers to system.o(i.led_taskctrl) for led_taskctrl
    mass_mal.o(i.MAL_Init) refers to w25xx.o(i.w25xx_init) for w25xx_init
    mass_mal.o(i.MAL_Init) refers to w25xx.o(i.w25xx_get_device_id) for w25xx_get_device_id
    mass_mal.o(i.MAL_Init) refers to mass_mal.o(.bss) for Mass_Memory_Size
    mass_mal.o(i.MAL_Read) refers to w25xx.o(i.w25xx_read) for w25xx_read
    mass_mal.o(i.MAL_Write) refers to w25xx.o(i.w25xx_page_write) for w25xx_page_write
    memory.o(i.Read_Memory) refers to mass_mal.o(i.MAL_Read) for MAL_Read
    memory.o(i.Read_Memory) refers to usb_sil.o(i.USB_SIL_Write) for USB_SIL_Write
    memory.o(i.Read_Memory) refers to usb_regs.o(i.SetEPTxCount) for SetEPTxCount
    memory.o(i.Read_Memory) refers to usb_regs.o(i.SetEPTxStatus) for SetEPTxStatus
    memory.o(i.Read_Memory) refers to hw_config.o(i.Led_RW_ON) for Led_RW_ON
    memory.o(i.Read_Memory) refers to hw_config.o(i.Led_RW_OFF) for Led_RW_OFF
    memory.o(i.Read_Memory) refers to memory.o(.data) for TransferState
    memory.o(i.Read_Memory) refers to mass_mal.o(.bss) for Mass_Block_Size
    memory.o(i.Read_Memory) refers to memory.o(.bss) for Data_Buffer
    memory.o(i.Read_Memory) refers to usb_bot.o(.bss) for CSW
    memory.o(i.Read_Memory) refers to usb_bot.o(.data) for Bot_State
    memory.o(i.Write_Memory) refers to mass_mal.o(i.MAL_Write) for MAL_Write
    memory.o(i.Write_Memory) refers to usb_regs.o(i.SetEPRxStatus) for SetEPRxStatus
    memory.o(i.Write_Memory) refers to hw_config.o(i.Led_RW_ON) for Led_RW_ON
    memory.o(i.Write_Memory) refers to usb_bot.o(i.Set_CSW) for Set_CSW
    memory.o(i.Write_Memory) refers to hw_config.o(i.Led_RW_OFF) for Led_RW_OFF
    memory.o(i.Write_Memory) refers to memory.o(.data) for Counter
    memory.o(i.Write_Memory) refers to mass_mal.o(.bss) for Mass_Block_Size
    memory.o(i.Write_Memory) refers to usb_bot.o(.bss) for Bulk_Data_Buff
    memory.o(i.Write_Memory) refers to memory.o(.bss) for Data_Buffer
    memory.o(i.Write_Memory) refers to usb_bot.o(.data) for Data_Len
    usb_bot.o(i.Bot_Abort) refers to usb_regs.o(i.SetEPTxStatus) for SetEPTxStatus
    usb_bot.o(i.Bot_Abort) refers to usb_regs.o(i.SetEPRxStatus) for SetEPRxStatus
    usb_bot.o(i.CBW_Decode) refers to usb_bot.o(i.Bot_Abort) for Bot_Abort
    usb_bot.o(i.CBW_Decode) refers to usb_scsi.o(i.Set_Scsi_Sense_Data) for Set_Scsi_Sense_Data
    usb_bot.o(i.CBW_Decode) refers to usb_bot.o(i.Set_CSW) for Set_CSW
    usb_bot.o(i.CBW_Decode) refers to usb_scsi.o(i.SCSI_RequestSense_Cmd) for SCSI_RequestSense_Cmd
    usb_bot.o(i.CBW_Decode) refers to usb_scsi.o(i.SCSI_Inquiry_Cmd) for SCSI_Inquiry_Cmd
    usb_bot.o(i.CBW_Decode) refers to usb_scsi.o(i.SCSI_Start_Stop_Unit_Cmd) for SCSI_Start_Stop_Unit_Cmd
    usb_bot.o(i.CBW_Decode) refers to usb_scsi.o(i.SCSI_ModeSense6_Cmd) for SCSI_ModeSense6_Cmd
    usb_bot.o(i.CBW_Decode) refers to usb_scsi.o(i.SCSI_ModeSense10_Cmd) for SCSI_ModeSense10_Cmd
    usb_bot.o(i.CBW_Decode) refers to usb_scsi.o(i.SCSI_ReadFormatCapacity_Cmd) for SCSI_ReadFormatCapacity_Cmd
    usb_bot.o(i.CBW_Decode) refers to usb_scsi.o(i.SCSI_ReadCapacity10_Cmd) for SCSI_ReadCapacity10_Cmd
    usb_bot.o(i.CBW_Decode) refers to usb_scsi.o(i.SCSI_TestUnitReady_Cmd) for SCSI_TestUnitReady_Cmd
    usb_bot.o(i.CBW_Decode) refers to usb_scsi.o(i.SCSI_Read10_Cmd) for SCSI_Read10_Cmd
    usb_bot.o(i.CBW_Decode) refers to usb_scsi.o(i.SCSI_Write10_Cmd) for SCSI_Write10_Cmd
    usb_bot.o(i.CBW_Decode) refers to usb_scsi.o(i.SCSI_Verify10_Cmd) for SCSI_Verify10_Cmd
    usb_bot.o(i.CBW_Decode) refers to usb_scsi.o(i.SCSI_Format_Cmd) for SCSI_Format_Cmd
    usb_bot.o(i.CBW_Decode) refers to usb_scsi.o(i.SCSI_Invalid_Cmd) for SCSI_Invalid_Cmd
    usb_bot.o(i.CBW_Decode) refers to usb_bot.o(.bss) for Bulk_Data_Buff
    usb_bot.o(i.CBW_Decode) refers to usb_bot.o(.data) for Data_Len
    usb_bot.o(i.CBW_Decode) refers to usb_prop.o(.data) for Max_Lun
    usb_bot.o(i.Mass_Storage_In) refers to usb_regs.o(i.SetEPRxStatus) for SetEPRxStatus
    usb_bot.o(i.Mass_Storage_In) refers to usb_scsi.o(i.SCSI_Read10_Cmd) for SCSI_Read10_Cmd
    usb_bot.o(i.Mass_Storage_In) refers to usb_bot.o(i.Set_CSW) for Set_CSW
    usb_bot.o(i.Mass_Storage_In) refers to usb_bot.o(.data) for Bot_State
    usb_bot.o(i.Mass_Storage_In) refers to usb_bot.o(.bss) for CBW
    usb_bot.o(i.Mass_Storage_Out) refers to usb_sil.o(i.USB_SIL_Read) for USB_SIL_Read
    usb_bot.o(i.Mass_Storage_Out) refers to usb_bot.o(i.CBW_Decode) for CBW_Decode
    usb_bot.o(i.Mass_Storage_Out) refers to usb_scsi.o(i.SCSI_Write10_Cmd) for SCSI_Write10_Cmd
    usb_bot.o(i.Mass_Storage_Out) refers to usb_bot.o(i.Bot_Abort) for Bot_Abort
    usb_bot.o(i.Mass_Storage_Out) refers to usb_scsi.o(i.Set_Scsi_Sense_Data) for Set_Scsi_Sense_Data
    usb_bot.o(i.Mass_Storage_Out) refers to usb_bot.o(i.Set_CSW) for Set_CSW
    usb_bot.o(i.Mass_Storage_Out) refers to usb_bot.o(.bss) for CBW
    usb_bot.o(i.Mass_Storage_Out) refers to usb_bot.o(.data) for Data_Len
    usb_bot.o(i.Set_CSW) refers to usb_sil.o(i.USB_SIL_Write) for USB_SIL_Write
    usb_bot.o(i.Set_CSW) refers to usb_regs.o(i.SetEPTxStatus) for SetEPTxStatus
    usb_bot.o(i.Set_CSW) refers to usb_bot.o(.bss) for CSW
    usb_bot.o(i.Set_CSW) refers to usb_bot.o(.data) for Bot_State
    usb_bot.o(i.Transfer_Data_Request) refers to usb_sil.o(i.USB_SIL_Write) for USB_SIL_Write
    usb_bot.o(i.Transfer_Data_Request) refers to usb_regs.o(i.SetEPTxStatus) for SetEPTxStatus
    usb_bot.o(i.Transfer_Data_Request) refers to usb_bot.o(.data) for Bot_State
    usb_bot.o(i.Transfer_Data_Request) refers to usb_bot.o(.bss) for CSW
    usb_endp.o(i.EP1_IN_Callback) refers to usb_bot.o(i.Mass_Storage_In) for Mass_Storage_In
    usb_endp.o(i.EP2_OUT_Callback) refers to usb_bot.o(i.Mass_Storage_Out) for Mass_Storage_Out
    usb_istr.o(i.USB_Istr) refers to gpx_record_task.o(.text) for gpx_file_saveexit
    usb_istr.o(i.USB_Istr) refers to usb_int.o(i.CTR_LP) for CTR_LP
    usb_istr.o(i.USB_Istr) refers to usb_istr.o(.data) for wIstr
    usb_istr.o(i.USB_Istr) refers to system.o(.data) for gUsbLinked
    usb_istr.o(i.USB_Istr) refers to usb_init.o(.data) for wInterrupt_Mask
    usb_istr.o(i.USB_Istr) refers to usb_prop.o(.data) for Device_Property
    usb_istr.o(.data) refers to usb_endp.o(i.EP1_IN_Callback) for EP1_IN_Callback
    usb_istr.o(.data) refers to usb_core.o(i.NOP_Process) for NOP_Process
    usb_istr.o(.data) refers to usb_endp.o(i.EP2_OUT_Callback) for EP2_OUT_Callback
    usb_prop.o(i.Get_Max_Lun) refers to usb_init.o(.data) for pInformation
    usb_prop.o(i.Get_Max_Lun) refers to usb_prop.o(.data) for Max_Lun
    usb_prop.o(i.MASS_Data_Setup) refers to usb_init.o(.data) for pInformation
    usb_prop.o(i.MASS_Data_Setup) refers to usb_prop.o(i.Get_Max_Lun) for Get_Max_Lun
    usb_prop.o(i.MASS_GetConfigDescriptor) refers to usb_core.o(i.Standard_GetDescriptorData) for Standard_GetDescriptorData
    usb_prop.o(i.MASS_GetConfigDescriptor) refers to usb_prop.o(.data) for Config_Descriptor
    usb_prop.o(i.MASS_GetDeviceDescriptor) refers to usb_core.o(i.Standard_GetDescriptorData) for Standard_GetDescriptorData
    usb_prop.o(i.MASS_GetDeviceDescriptor) refers to usb_prop.o(.data) for Device_Descriptor
    usb_prop.o(i.MASS_GetStringDescriptor) refers to usb_core.o(i.Standard_GetDescriptorData) for Standard_GetDescriptorData
    usb_prop.o(i.MASS_GetStringDescriptor) refers to usb_init.o(.data) for pInformation
    usb_prop.o(i.MASS_GetStringDescriptor) refers to usb_prop.o(.data) for String_Descriptor
    usb_prop.o(i.MASS_NoData_Setup) refers to usb_regs.o(i.ClearDTOG_TX) for ClearDTOG_TX
    usb_prop.o(i.MASS_NoData_Setup) refers to usb_regs.o(i.ClearDTOG_RX) for ClearDTOG_RX
    usb_prop.o(i.MASS_NoData_Setup) refers to usb_init.o(.data) for pInformation
    usb_prop.o(i.MASS_NoData_Setup) refers to usb_bot.o(.bss) for CBW
    usb_prop.o(i.MASS_NoData_Setup) refers to usb_bot.o(.data) for Bot_State
    usb_prop.o(i.MASS_Reset) refers to usb_regs.o(i.SetBTABLE) for SetBTABLE
    usb_prop.o(i.MASS_Reset) refers to usb_regs.o(i.SetEPType) for SetEPType
    usb_prop.o(i.MASS_Reset) refers to usb_regs.o(i.SetEPTxStatus) for SetEPTxStatus
    usb_prop.o(i.MASS_Reset) refers to usb_regs.o(i.SetEPRxAddr) for SetEPRxAddr
    usb_prop.o(i.MASS_Reset) refers to usb_regs.o(i.SetEPRxCount) for SetEPRxCount
    usb_prop.o(i.MASS_Reset) refers to usb_regs.o(i.SetEPTxAddr) for SetEPTxAddr
    usb_prop.o(i.MASS_Reset) refers to usb_regs.o(i.Clear_Status_Out) for Clear_Status_Out
    usb_prop.o(i.MASS_Reset) refers to usb_regs.o(i.SetEPRxValid) for SetEPRxValid
    usb_prop.o(i.MASS_Reset) refers to usb_regs.o(i.SetEPRxStatus) for SetEPRxStatus
    usb_prop.o(i.MASS_Reset) refers to usb_core.o(i.SetDeviceAddress) for SetDeviceAddress
    usb_prop.o(i.MASS_Reset) refers to hw_config.o(i.USB_NotConfigured_LED) for USB_NotConfigured_LED
    usb_prop.o(i.MASS_Reset) refers to usb_init.o(.bss) for Device_Info
    usb_prop.o(i.MASS_Reset) refers to usb_desc.o(.constdata) for MASS_ConfigDescriptor
    usb_prop.o(i.MASS_Reset) refers to usb_init.o(.data) for pInformation
    usb_prop.o(i.MASS_Reset) refers to usb_prop.o(.data) for Device_Property
    usb_prop.o(i.MASS_Reset) refers to usb_pwr.o(.data) for bDeviceState
    usb_prop.o(i.MASS_Reset) refers to usb_bot.o(.bss) for CBW
    usb_prop.o(i.MASS_Reset) refers to usb_bot.o(.data) for Bot_State
    usb_prop.o(i.MASS_init) refers to hw_config.o(i.Get_SerialNum) for Get_SerialNum
    usb_prop.o(i.MASS_init) refers to usb_pwr.o(i.PowerOn) for PowerOn
    usb_prop.o(i.MASS_init) refers to usb_sil.o(i.USB_SIL_Init) for USB_SIL_Init
    usb_prop.o(i.MASS_init) refers to usb_init.o(.data) for pInformation
    usb_prop.o(i.MASS_init) refers to usb_pwr.o(.data) for bDeviceState
    usb_prop.o(i.Mass_Storage_ClearFeature) refers to usb_bot.o(i.Bot_Abort) for Bot_Abort
    usb_prop.o(i.Mass_Storage_ClearFeature) refers to usb_bot.o(.bss) for CBW
    usb_prop.o(i.Mass_Storage_SetConfiguration) refers to usb_regs.o(i.ClearDTOG_TX) for ClearDTOG_TX
    usb_prop.o(i.Mass_Storage_SetConfiguration) refers to usb_regs.o(i.ClearDTOG_RX) for ClearDTOG_RX
    usb_prop.o(i.Mass_Storage_SetConfiguration) refers to usb_init.o(.data) for pInformation
    usb_prop.o(i.Mass_Storage_SetConfiguration) refers to usb_pwr.o(.data) for bDeviceState
    usb_prop.o(i.Mass_Storage_SetConfiguration) refers to usb_bot.o(.data) for Bot_State
    usb_prop.o(i.Mass_Storage_SetDeviceAddress) refers to usb_pwr.o(.data) for bDeviceState
    usb_prop.o(.data) refers to usb_prop.o(i.MASS_init) for MASS_init
    usb_prop.o(.data) refers to usb_prop.o(i.MASS_Reset) for MASS_Reset
    usb_prop.o(.data) refers to usb_prop.o(i.MASS_Status_In) for MASS_Status_In
    usb_prop.o(.data) refers to usb_prop.o(i.MASS_Status_Out) for MASS_Status_Out
    usb_prop.o(.data) refers to usb_prop.o(i.MASS_Data_Setup) for MASS_Data_Setup
    usb_prop.o(.data) refers to usb_prop.o(i.MASS_NoData_Setup) for MASS_NoData_Setup
    usb_prop.o(.data) refers to usb_prop.o(i.MASS_Get_Interface_Setting) for MASS_Get_Interface_Setting
    usb_prop.o(.data) refers to usb_prop.o(i.MASS_GetDeviceDescriptor) for MASS_GetDeviceDescriptor
    usb_prop.o(.data) refers to usb_prop.o(i.MASS_GetConfigDescriptor) for MASS_GetConfigDescriptor
    usb_prop.o(.data) refers to usb_prop.o(i.MASS_GetStringDescriptor) for MASS_GetStringDescriptor
    usb_prop.o(.data) refers to usb_core.o(i.NOP_Process) for NOP_Process
    usb_prop.o(.data) refers to usb_prop.o(i.Mass_Storage_SetConfiguration) for Mass_Storage_SetConfiguration
    usb_prop.o(.data) refers to usb_prop.o(i.Mass_Storage_ClearFeature) for Mass_Storage_ClearFeature
    usb_prop.o(.data) refers to usb_prop.o(i.Mass_Storage_SetDeviceAddress) for Mass_Storage_SetDeviceAddress
    usb_prop.o(.data) refers to usb_desc.o(.constdata) for MASS_DeviceDescriptor
    usb_prop.o(.data) refers to usb_desc.o(.data) for MASS_StringSerial
    usb_pwr.o(i.PowerOff) refers to hw_config.o(i.USB_Cable_Config) for USB_Cable_Config
    usb_pwr.o(i.PowerOn) refers to hw_config.o(i.USB_Cable_Config) for USB_Cable_Config
    usb_pwr.o(i.PowerOn) refers to usb_init.o(.data) for wInterrupt_Mask
    usb_pwr.o(i.Resume) refers to usb_pwr.o(i.Resume_Init) for Resume_Init
    usb_pwr.o(i.Resume) refers to usb_pwr.o(.data) for ResumeS
    usb_pwr.o(i.Resume_Init) refers to hw_config.o(i.Leave_LowPowerMode) for Leave_LowPowerMode
    usb_pwr.o(i.Suspend) refers to hw_config.o(i.Enter_LowPowerMode) for Enter_LowPowerMode
    usb_scsi.o(i.SCSI_Address_Management) refers to usb_bot.o(i.Bot_Abort) for Bot_Abort
    usb_scsi.o(i.SCSI_Address_Management) refers to usb_scsi.o(i.Set_Scsi_Sense_Data) for Set_Scsi_Sense_Data
    usb_scsi.o(i.SCSI_Address_Management) refers to usb_bot.o(i.Set_CSW) for Set_CSW
    usb_scsi.o(i.SCSI_Address_Management) refers to mass_mal.o(.bss) for Mass_Block_Count
    usb_scsi.o(i.SCSI_Address_Management) refers to usb_bot.o(.bss) for CBW
    usb_scsi.o(i.SCSI_Format_Cmd) refers to mass_mal.o(i.MAL_GetStatus) for MAL_GetStatus
    usb_scsi.o(i.SCSI_Format_Cmd) refers to usb_scsi.o(i.Set_Scsi_Sense_Data) for Set_Scsi_Sense_Data
    usb_scsi.o(i.SCSI_Format_Cmd) refers to usb_bot.o(i.Set_CSW) for Set_CSW
    usb_scsi.o(i.SCSI_Format_Cmd) refers to usb_bot.o(i.Bot_Abort) for Bot_Abort
    usb_scsi.o(i.SCSI_Format_Cmd) refers to usb_bot.o(.bss) for CBW
    usb_scsi.o(i.SCSI_Inquiry_Cmd) refers to usb_bot.o(i.Transfer_Data_Request) for Transfer_Data_Request
    usb_scsi.o(i.SCSI_Inquiry_Cmd) refers to usb_bot.o(.bss) for CBW
    usb_scsi.o(i.SCSI_Inquiry_Cmd) refers to scsi_data.o(.data) for Page00_Inquiry_Data
    usb_scsi.o(i.SCSI_Invalid_Cmd) refers to usb_bot.o(i.Bot_Abort) for Bot_Abort
    usb_scsi.o(i.SCSI_Invalid_Cmd) refers to usb_scsi.o(i.Set_Scsi_Sense_Data) for Set_Scsi_Sense_Data
    usb_scsi.o(i.SCSI_Invalid_Cmd) refers to usb_bot.o(i.Set_CSW) for Set_CSW
    usb_scsi.o(i.SCSI_Invalid_Cmd) refers to usb_bot.o(.bss) for CBW
    usb_scsi.o(i.SCSI_ModeSense10_Cmd) refers to usb_bot.o(i.Transfer_Data_Request) for Transfer_Data_Request
    usb_scsi.o(i.SCSI_ModeSense10_Cmd) refers to scsi_data.o(.data) for Mode_Sense10_data
    usb_scsi.o(i.SCSI_ModeSense6_Cmd) refers to usb_bot.o(i.Transfer_Data_Request) for Transfer_Data_Request
    usb_scsi.o(i.SCSI_ModeSense6_Cmd) refers to scsi_data.o(.data) for Mode_Sense6_data
    usb_scsi.o(i.SCSI_Read10_Cmd) refers to usb_scsi.o(i.SCSI_Address_Management) for SCSI_Address_Management
    usb_scsi.o(i.SCSI_Read10_Cmd) refers to memory.o(i.Read_Memory) for Read_Memory
    usb_scsi.o(i.SCSI_Read10_Cmd) refers to usb_bot.o(i.Bot_Abort) for Bot_Abort
    usb_scsi.o(i.SCSI_Read10_Cmd) refers to usb_scsi.o(i.Set_Scsi_Sense_Data) for Set_Scsi_Sense_Data
    usb_scsi.o(i.SCSI_Read10_Cmd) refers to usb_bot.o(i.Set_CSW) for Set_CSW
    usb_scsi.o(i.SCSI_Read10_Cmd) refers to usb_bot.o(.data) for Bot_State
    usb_scsi.o(i.SCSI_Read10_Cmd) refers to usb_bot.o(.bss) for CBW
    usb_scsi.o(i.SCSI_ReadCapacity10_Cmd) refers to mass_mal.o(i.MAL_GetStatus) for MAL_GetStatus
    usb_scsi.o(i.SCSI_ReadCapacity10_Cmd) refers to usb_scsi.o(i.Set_Scsi_Sense_Data) for Set_Scsi_Sense_Data
    usb_scsi.o(i.SCSI_ReadCapacity10_Cmd) refers to usb_bot.o(i.Set_CSW) for Set_CSW
    usb_scsi.o(i.SCSI_ReadCapacity10_Cmd) refers to usb_bot.o(i.Bot_Abort) for Bot_Abort
    usb_scsi.o(i.SCSI_ReadCapacity10_Cmd) refers to usb_bot.o(i.Transfer_Data_Request) for Transfer_Data_Request
    usb_scsi.o(i.SCSI_ReadCapacity10_Cmd) refers to usb_bot.o(.bss) for CBW
    usb_scsi.o(i.SCSI_ReadCapacity10_Cmd) refers to mass_mal.o(.bss) for Mass_Block_Count
    usb_scsi.o(i.SCSI_ReadCapacity10_Cmd) refers to scsi_data.o(.data) for ReadCapacity10_Data
    usb_scsi.o(i.SCSI_ReadFormatCapacity_Cmd) refers to mass_mal.o(i.MAL_GetStatus) for MAL_GetStatus
    usb_scsi.o(i.SCSI_ReadFormatCapacity_Cmd) refers to usb_scsi.o(i.Set_Scsi_Sense_Data) for Set_Scsi_Sense_Data
    usb_scsi.o(i.SCSI_ReadFormatCapacity_Cmd) refers to usb_bot.o(i.Set_CSW) for Set_CSW
    usb_scsi.o(i.SCSI_ReadFormatCapacity_Cmd) refers to usb_bot.o(i.Bot_Abort) for Bot_Abort
    usb_scsi.o(i.SCSI_ReadFormatCapacity_Cmd) refers to usb_bot.o(i.Transfer_Data_Request) for Transfer_Data_Request
    usb_scsi.o(i.SCSI_ReadFormatCapacity_Cmd) refers to usb_bot.o(.bss) for CBW
    usb_scsi.o(i.SCSI_ReadFormatCapacity_Cmd) refers to mass_mal.o(.bss) for Mass_Block_Count
    usb_scsi.o(i.SCSI_ReadFormatCapacity_Cmd) refers to scsi_data.o(.data) for ReadFormatCapacity_Data
    usb_scsi.o(i.SCSI_RequestSense_Cmd) refers to usb_bot.o(i.Transfer_Data_Request) for Transfer_Data_Request
    usb_scsi.o(i.SCSI_RequestSense_Cmd) refers to usb_bot.o(.bss) for CBW
    usb_scsi.o(i.SCSI_RequestSense_Cmd) refers to scsi_data.o(.data) for Scsi_Sense_Data
    usb_scsi.o(i.SCSI_Start_Stop_Unit_Cmd) refers to usb_bot.o(i.Set_CSW) for Set_CSW
    usb_scsi.o(i.SCSI_TestUnitReady_Cmd) refers to mass_mal.o(i.MAL_GetStatus) for MAL_GetStatus
    usb_scsi.o(i.SCSI_TestUnitReady_Cmd) refers to usb_scsi.o(i.Set_Scsi_Sense_Data) for Set_Scsi_Sense_Data
    usb_scsi.o(i.SCSI_TestUnitReady_Cmd) refers to usb_bot.o(i.Set_CSW) for Set_CSW
    usb_scsi.o(i.SCSI_TestUnitReady_Cmd) refers to usb_bot.o(i.Bot_Abort) for Bot_Abort
    usb_scsi.o(i.SCSI_TestUnitReady_Cmd) refers to usb_bot.o(.bss) for CBW
    usb_scsi.o(i.SCSI_Valid_Cmd) refers to usb_bot.o(i.Bot_Abort) for Bot_Abort
    usb_scsi.o(i.SCSI_Valid_Cmd) refers to usb_scsi.o(i.Set_Scsi_Sense_Data) for Set_Scsi_Sense_Data
    usb_scsi.o(i.SCSI_Valid_Cmd) refers to usb_bot.o(i.Set_CSW) for Set_CSW
    usb_scsi.o(i.SCSI_Valid_Cmd) refers to usb_bot.o(.bss) for CBW
    usb_scsi.o(i.SCSI_Verify10_Cmd) refers to usb_bot.o(i.Set_CSW) for Set_CSW
    usb_scsi.o(i.SCSI_Verify10_Cmd) refers to usb_bot.o(i.Bot_Abort) for Bot_Abort
    usb_scsi.o(i.SCSI_Verify10_Cmd) refers to usb_scsi.o(i.Set_Scsi_Sense_Data) for Set_Scsi_Sense_Data
    usb_scsi.o(i.SCSI_Verify10_Cmd) refers to usb_bot.o(.bss) for CBW
    usb_scsi.o(i.SCSI_Write10_Cmd) refers to usb_scsi.o(i.SCSI_Address_Management) for SCSI_Address_Management
    usb_scsi.o(i.SCSI_Write10_Cmd) refers to usb_regs.o(i.SetEPRxStatus) for SetEPRxStatus
    usb_scsi.o(i.SCSI_Write10_Cmd) refers to usb_bot.o(i.Bot_Abort) for Bot_Abort
    usb_scsi.o(i.SCSI_Write10_Cmd) refers to usb_scsi.o(i.Set_Scsi_Sense_Data) for Set_Scsi_Sense_Data
    usb_scsi.o(i.SCSI_Write10_Cmd) refers to usb_bot.o(i.Set_CSW) for Set_CSW
    usb_scsi.o(i.SCSI_Write10_Cmd) refers to memory.o(i.Write_Memory) for Write_Memory
    usb_scsi.o(i.SCSI_Write10_Cmd) refers to usb_bot.o(.data) for Bot_State
    usb_scsi.o(i.SCSI_Write10_Cmd) refers to usb_bot.o(.bss) for CBW
    usb_scsi.o(i.Set_Scsi_Sense_Data) refers to scsi_data.o(.data) for Scsi_Sense_Data
    usb_core.o(i.DataStageIn) refers to usb_regs.o(i.GetEPTxAddr) for GetEPTxAddr
    usb_core.o(i.DataStageIn) refers to usb_mem.o(i.UserToPMABufferCopy) for UserToPMABufferCopy
    usb_core.o(i.DataStageIn) refers to usb_regs.o(i.SetEPTxCount) for SetEPTxCount
    usb_core.o(i.DataStageIn) refers to usb_init.o(.data) for pInformation
    usb_core.o(i.DataStageIn) refers to usb_core.o(.data) for Data_Mul_MaxPacketSize
    usb_core.o(i.DataStageIn) refers to usb_int.o(.data) for SaveTState
    usb_core.o(i.DataStageOut) refers to usb_regs.o(i.GetEPRxAddr) for GetEPRxAddr
    usb_core.o(i.DataStageOut) refers to usb_mem.o(i.PMAToUserBufferCopy) for PMAToUserBufferCopy
    usb_core.o(i.DataStageOut) refers to usb_regs.o(i.SetEPTxCount) for SetEPTxCount
    usb_core.o(i.DataStageOut) refers to usb_init.o(.data) for pInformation
    usb_core.o(i.DataStageOut) refers to usb_int.o(.data) for SaveRState
    usb_core.o(i.Data_Setup0) refers to usb_core.o(i.DataStageIn) for DataStageIn
    usb_core.o(i.Data_Setup0) refers to usb_init.o(.data) for pInformation
    usb_core.o(i.Data_Setup0) refers to usb_core.o(i.Standard_GetStatus) for Standard_GetStatus
    usb_core.o(i.Data_Setup0) refers to usb_prop.o(.data) for Device_Table
    usb_core.o(i.Data_Setup0) refers to usb_core.o(i.Standard_GetConfiguration) for Standard_GetConfiguration
    usb_core.o(i.Data_Setup0) refers to usb_core.o(i.Standard_GetInterface) for Standard_GetInterface
    usb_core.o(i.Data_Setup0) refers to usb_core.o(.data) for Data_Mul_MaxPacketSize
    usb_core.o(i.Data_Setup0) refers to usb_int.o(.data) for SaveRState
    usb_core.o(i.In0_Process) refers to usb_core.o(i.DataStageIn) for DataStageIn
    usb_core.o(i.In0_Process) refers to usb_core.o(i.SetDeviceAddress) for SetDeviceAddress
    usb_core.o(i.In0_Process) refers to usb_core.o(i.Post0_Process) for Post0_Process
    usb_core.o(i.In0_Process) refers to usb_init.o(.data) for pInformation
    usb_core.o(i.NoData_Setup0) refers to usb_core.o(i.Standard_SetConfiguration) for Standard_SetConfiguration
    usb_core.o(i.NoData_Setup0) refers to usb_core.o(i.Standard_SetDeviceFeature) for Standard_SetDeviceFeature
    usb_core.o(i.NoData_Setup0) refers to usb_core.o(i.Standard_ClearFeature) for Standard_ClearFeature
    usb_core.o(i.NoData_Setup0) refers to usb_core.o(i.Standard_SetInterface) for Standard_SetInterface
    usb_core.o(i.NoData_Setup0) refers to usb_core.o(i.Standard_SetEndPointFeature) for Standard_SetEndPointFeature
    usb_core.o(i.NoData_Setup0) refers to usb_init.o(.data) for pInformation
    usb_core.o(i.NoData_Setup0) refers to usb_int.o(.data) for SaveTState
    usb_core.o(i.Out0_Process) refers to usb_core.o(i.DataStageOut) for DataStageOut
    usb_core.o(i.Out0_Process) refers to usb_core.o(i.Post0_Process) for Post0_Process
    usb_core.o(i.Out0_Process) refers to usb_init.o(.data) for pInformation
    usb_core.o(i.Post0_Process) refers to usb_regs.o(i.SetEPRxCount) for SetEPRxCount
    usb_core.o(i.Post0_Process) refers to usb_prop.o(.data) for Device_Property
    usb_core.o(i.Post0_Process) refers to usb_init.o(.data) for pInformation
    usb_core.o(i.Post0_Process) refers to usb_int.o(.data) for SaveRState
    usb_core.o(i.SetDeviceAddress) refers to usb_prop.o(.data) for Device_Table
    usb_core.o(i.Setup0_Process) refers to usb_regs.o(i.ByteSwap) for ByteSwap
    usb_core.o(i.Setup0_Process) refers to usb_core.o(i.NoData_Setup0) for NoData_Setup0
    usb_core.o(i.Setup0_Process) refers to usb_core.o(i.Data_Setup0) for Data_Setup0
    usb_core.o(i.Setup0_Process) refers to usb_core.o(i.Post0_Process) for Post0_Process
    usb_core.o(i.Setup0_Process) refers to usb_init.o(.data) for pInformation
    usb_core.o(i.Standard_ClearFeature) refers to usb_regs.o(i.ClearDTOG_TX) for ClearDTOG_TX
    usb_core.o(i.Standard_ClearFeature) refers to usb_regs.o(i.SetEPTxStatus) for SetEPTxStatus
    usb_core.o(i.Standard_ClearFeature) refers to usb_regs.o(i.SetEPRxCount) for SetEPRxCount
    usb_core.o(i.Standard_ClearFeature) refers to usb_regs.o(i.ClearDTOG_RX) for ClearDTOG_RX
    usb_core.o(i.Standard_ClearFeature) refers to usb_init.o(.data) for pInformation
    usb_core.o(i.Standard_ClearFeature) refers to usb_prop.o(.data) for Device_Table
    usb_core.o(i.Standard_GetConfiguration) refers to usb_init.o(.data) for pInformation
    usb_core.o(i.Standard_GetDescriptorData) refers to usb_init.o(.data) for pInformation
    usb_core.o(i.Standard_GetInterface) refers to usb_init.o(.data) for pInformation
    usb_core.o(i.Standard_GetStatus) refers to usb_init.o(.data) for pInformation
    usb_core.o(i.Standard_GetStatus) refers to usb_core.o(.data) for StatusInfo
    usb_core.o(i.Standard_SetConfiguration) refers to usb_init.o(.data) for pInformation
    usb_core.o(i.Standard_SetConfiguration) refers to usb_prop.o(.data) for Device_Table
    usb_core.o(i.Standard_SetDeviceFeature) refers to usb_init.o(.data) for pInformation
    usb_core.o(i.Standard_SetEndPointFeature) refers to usb_init.o(.data) for pInformation
    usb_core.o(i.Standard_SetEndPointFeature) refers to usb_prop.o(.data) for Device_Table
    usb_core.o(i.Standard_SetInterface) refers to usb_init.o(.data) for pInformation
    usb_init.o(i.USB_Init) refers to usb_init.o(.bss) for Device_Info
    usb_init.o(i.USB_Init) refers to usb_init.o(.data) for pInformation
    usb_init.o(i.USB_Init) refers to usb_prop.o(.data) for Device_Property
    usb_int.o(i.CTR_HP) refers to usb_istr.o(.data) for wIstr
    usb_int.o(i.CTR_HP) refers to usb_init.o(.data) for EPindex
    usb_int.o(i.CTR_LP) refers to usb_core.o(i.In0_Process) for In0_Process
    usb_int.o(i.CTR_LP) refers to usb_core.o(i.Setup0_Process) for Setup0_Process
    usb_int.o(i.CTR_LP) refers to usb_core.o(i.Out0_Process) for Out0_Process
    usb_int.o(i.CTR_LP) refers to usb_istr.o(.data) for wIstr
    usb_int.o(i.CTR_LP) refers to usb_init.o(.data) for EPindex
    usb_int.o(i.CTR_LP) refers to usb_int.o(.data) for SaveRState
    usb_regs.o(i.SetDouBleBuffEPStall) refers to usb_regs.o(i.GetENDPOINT) for GetENDPOINT
    usb_sil.o(i.USB_SIL_Init) refers to usb_init.o(.data) for wInterrupt_Mask
    usb_sil.o(i.USB_SIL_Read) refers to usb_regs.o(i.GetEPRxCount) for GetEPRxCount
    usb_sil.o(i.USB_SIL_Read) refers to usb_regs.o(i.GetEPRxAddr) for GetEPRxAddr
    usb_sil.o(i.USB_SIL_Read) refers to usb_mem.o(i.PMAToUserBufferCopy) for PMAToUserBufferCopy
    usb_sil.o(i.USB_SIL_Write) refers to usb_regs.o(i.GetEPTxAddr) for GetEPTxAddr
    usb_sil.o(i.USB_SIL_Write) refers to usb_mem.o(i.UserToPMABufferCopy) for UserToPMABufferCopy
    usb_sil.o(i.USB_SIL_Write) refers to usb_regs.o(i.SetEPTxCount) for SetEPTxCount
    diskio.o(i.disk_initialize) refers to w25xx.o(i.get_spiflash_info) for get_spiflash_info
    diskio.o(i.disk_initialize) refers to diskio.o(.data) for DiscSectorSize
    diskio.o(i.disk_ioctl) refers to diskio.o(.data) for Stat
    diskio.o(i.disk_read) refers to w25xx.o(i.w25xx_read) for w25xx_read
    diskio.o(i.disk_read) refers to diskio.o(.data) for DiscSectorSize
    diskio.o(i.disk_status) refers to diskio.o(.data) for Stat
    diskio.o(i.disk_write) refers to w25xx.o(i.w25xx_page_write) for w25xx_page_write
    diskio.o(i.disk_write) refers to diskio.o(.data) for DiscSectorSize
    diskio.o(i.get_fattime) refers to datetime.o(i.sys_time) for sys_time
    ff.o(i.auto_mount) refers to diskio.o(i.disk_status) for disk_status
    ff.o(i.auto_mount) refers to diskio.o(i.disk_initialize) for disk_initialize
    ff.o(i.auto_mount) refers to diskio.o(i.disk_ioctl) for disk_ioctl
    ff.o(i.auto_mount) refers to ff.o(i.check_fs) for check_fs
    ff.o(i.auto_mount) refers to diskio.o(i.disk_read) for disk_read
    ff.o(i.auto_mount) refers to ff.o(.data) for FatFs
    ff.o(i.check_fs) refers to diskio.o(i.disk_read) for disk_read
    ff.o(i.check_fs) refers to ff.o(i.mem_cmp) for mem_cmp
    ff.o(i.create_chain) refers to ff.o(i.get_cluster) for get_cluster
    ff.o(i.create_chain) refers to ff.o(i.put_cluster) for put_cluster
    ff.o(i.create_name) refers to ff.o(i.mem_set) for mem_set
    ff.o(i.create_name) refers to ff.o(i.chk_chr) for chk_chr
    ff.o(i.dir_find) refers to ff.o(i.dir_seek) for dir_seek
    ff.o(i.dir_find) refers to ff.o(i.move_window) for move_window
    ff.o(i.dir_find) refers to ff.o(i.mem_cmp) for mem_cmp
    ff.o(i.dir_find) refers to ff.o(i.dir_next) for dir_next
    ff.o(i.dir_next) refers to ff.o(i.get_cluster) for get_cluster
    ff.o(i.dir_next) refers to ff.o(i.create_chain) for create_chain
    ff.o(i.dir_next) refers to ff.o(i.move_window) for move_window
    ff.o(i.dir_next) refers to ff.o(i.mem_set) for mem_set
    ff.o(i.dir_next) refers to ff.o(i.clust2sect) for clust2sect
    ff.o(i.dir_read) refers to ff.o(i.move_window) for move_window
    ff.o(i.dir_read) refers to ff.o(i.dir_next) for dir_next
    ff.o(i.dir_register) refers to ff.o(i.dir_seek) for dir_seek
    ff.o(i.dir_register) refers to ff.o(i.move_window) for move_window
    ff.o(i.dir_register) refers to ff.o(i.dir_next) for dir_next
    ff.o(i.dir_register) refers to ff.o(i.mem_set) for mem_set
    ff.o(i.dir_register) refers to ff.o(i.mem_cpy) for mem_cpy
    ff.o(i.dir_remove) refers to ff.o(i.dir_seek) for dir_seek
    ff.o(i.dir_remove) refers to ff.o(i.move_window) for move_window
    ff.o(i.dir_seek) refers to ff.o(i.get_cluster) for get_cluster
    ff.o(i.dir_seek) refers to ff.o(i.clust2sect) for clust2sect
    ff.o(i.disc_mount) refers to ff.o(i.f_mount) for f_mount
    ff.o(i.disc_mount) refers to memory.o(.bss) for Data_Buffer
    ff.o(i.disc_mount) refers to ff.o(.bss) for my_disk
    ff.o(i.disc_mount) refers to ff.o(.data) for fat_fs
    ff.o(i.f_chmod) refers to ff.o(i.auto_mount) for auto_mount
    ff.o(i.f_chmod) refers to ff.o(i.follow_path) for follow_path
    ff.o(i.f_chmod) refers to ff.o(i.sync) for sync
    ff.o(i.f_close) refers to ff.o(i.f_sync) for f_sync
    ff.o(i.f_create) refers to ff.o(i.auto_mount) for auto_mount
    ff.o(i.f_create) refers to ff.o(i.follow_path) for follow_path
    ff.o(i.f_create) refers to ff.o(i.dir_register) for dir_register
    ff.o(i.f_create) refers to diskio.o(i.get_fattime) for get_fattime
    ff.o(i.f_create) refers to ff.o(i.f_sync) for f_sync
    ff.o(i.f_create) refers to ff.o(i.create_chain) for create_chain
    ff.o(i.f_getfree) refers to ff.o(i.auto_mount) for auto_mount
    ff.o(i.f_getfree) refers to ff.o(i.get_cluster) for get_cluster
    ff.o(i.f_getfree) refers to ff.o(i.move_window) for move_window
    ff.o(i.f_gets) refers to ff.o(i.f_read) for f_read
    ff.o(i.f_lseek) refers to ff.o(i.validate) for validate
    ff.o(i.f_lseek) refers to ff.o(i.create_chain) for create_chain
    ff.o(i.f_lseek) refers to ff.o(i.get_cluster) for get_cluster
    ff.o(i.f_lseek) refers to ff.o(i.clust2sect) for clust2sect
    ff.o(i.f_lseek) refers to diskio.o(i.disk_write) for disk_write
    ff.o(i.f_lseek) refers to diskio.o(i.disk_read) for disk_read
    ff.o(i.f_mkdir) refers to ff.o(i.auto_mount) for auto_mount
    ff.o(i.f_mkdir) refers to ff.o(i.follow_path) for follow_path
    ff.o(i.f_mkdir) refers to ff.o(i.create_chain) for create_chain
    ff.o(i.f_mkdir) refers to ff.o(i.move_window) for move_window
    ff.o(i.f_mkdir) refers to ff.o(i.clust2sect) for clust2sect
    ff.o(i.f_mkdir) refers to ff.o(i.mem_set) for mem_set
    ff.o(i.f_mkdir) refers to diskio.o(i.get_fattime) for get_fattime
    ff.o(i.f_mkdir) refers to ff.o(i.mem_cpy) for mem_cpy
    ff.o(i.f_mkdir) refers to ff.o(i.dir_register) for dir_register
    ff.o(i.f_mkdir) refers to ff.o(i.remove_chain) for remove_chain
    ff.o(i.f_mkdir) refers to ff.o(i.sync) for sync
    ff.o(i.f_mount) refers to ff.o(.data) for FatFs
    ff.o(i.f_open) refers to ff.o(i.auto_mount) for auto_mount
    ff.o(i.f_open) refers to ff.o(i.follow_path) for follow_path
    ff.o(i.f_open) refers to ff.o(i.dir_register) for dir_register
    ff.o(i.f_open) refers to ff.o(i.remove_chain) for remove_chain
    ff.o(i.f_open) refers to ff.o(i.move_window) for move_window
    ff.o(i.f_open) refers to diskio.o(i.get_fattime) for get_fattime
    ff.o(i.f_opendir) refers to ff.o(i.auto_mount) for auto_mount
    ff.o(i.f_opendir) refers to ff.o(i.follow_path) for follow_path
    ff.o(i.f_opendir) refers to ff.o(i.dir_seek) for dir_seek
    ff.o(i.f_printf) refers to ff.o(i.f_putc) for f_putc
    ff.o(i.f_printf) refers to ff.o(i.f_puts) for f_puts
    ff.o(i.f_putc) refers to ff.o(i.f_write) for f_write
    ff.o(i.f_puts) refers to ff.o(i.f_putc) for f_putc
    ff.o(i.f_read) refers to ff.o(i.validate) for validate
    ff.o(i.f_read) refers to ff.o(i.get_cluster) for get_cluster
    ff.o(i.f_read) refers to ff.o(i.clust2sect) for clust2sect
    ff.o(i.f_read) refers to diskio.o(i.disk_read) for disk_read
    ff.o(i.f_read) refers to diskio.o(i.disk_write) for disk_write
    ff.o(i.f_read) refers to ff.o(i.mem_cpy) for mem_cpy
    ff.o(i.f_readdir) refers to ff.o(i.validate) for validate
    ff.o(i.f_readdir) refers to ff.o(i.dir_seek) for dir_seek
    ff.o(i.f_readdir) refers to ff.o(i.dir_read) for dir_read
    ff.o(i.f_readdir) refers to ff.o(i.get_fileinfo) for get_fileinfo
    ff.o(i.f_readdir) refers to ff.o(i.dir_next) for dir_next
    ff.o(i.f_rename) refers to ff.o(i.auto_mount) for auto_mount
    ff.o(i.f_rename) refers to ff.o(i.follow_path) for follow_path
    ff.o(i.f_rename) refers to ff.o(i.mem_cpy) for mem_cpy
    ff.o(i.f_rename) refers to ff.o(i.dir_register) for dir_register
    ff.o(i.f_rename) refers to ff.o(i.clust2sect) for clust2sect
    ff.o(i.f_rename) refers to ff.o(i.move_window) for move_window
    ff.o(i.f_rename) refers to ff.o(i.dir_remove) for dir_remove
    ff.o(i.f_rename) refers to ff.o(i.sync) for sync
    ff.o(i.f_stat) refers to ff.o(i.auto_mount) for auto_mount
    ff.o(i.f_stat) refers to ff.o(i.follow_path) for follow_path
    ff.o(i.f_stat) refers to ff.o(i.get_fileinfo) for get_fileinfo
    ff.o(i.f_sync) refers to ff.o(i.validate) for validate
    ff.o(i.f_sync) refers to diskio.o(i.disk_write) for disk_write
    ff.o(i.f_sync) refers to ff.o(i.move_window) for move_window
    ff.o(i.f_sync) refers to diskio.o(i.get_fattime) for get_fattime
    ff.o(i.f_sync) refers to ff.o(i.sync) for sync
    ff.o(i.f_truncate) refers to ff.o(i.validate) for validate
    ff.o(i.f_truncate) refers to ff.o(i.remove_chain) for remove_chain
    ff.o(i.f_truncate) refers to ff.o(i.get_cluster) for get_cluster
    ff.o(i.f_truncate) refers to ff.o(i.put_cluster) for put_cluster
    ff.o(i.f_unlink) refers to ff.o(i.auto_mount) for auto_mount
    ff.o(i.f_unlink) refers to ff.o(i.follow_path) for follow_path
    ff.o(i.f_unlink) refers to ff.o(i.mem_cpy) for mem_cpy
    ff.o(i.f_unlink) refers to ff.o(i.dir_seek) for dir_seek
    ff.o(i.f_unlink) refers to ff.o(i.dir_read) for dir_read
    ff.o(i.f_unlink) refers to ff.o(i.dir_remove) for dir_remove
    ff.o(i.f_unlink) refers to ff.o(i.remove_chain) for remove_chain
    ff.o(i.f_unlink) refers to ff.o(i.sync) for sync
    ff.o(i.f_utime) refers to ff.o(i.auto_mount) for auto_mount
    ff.o(i.f_utime) refers to ff.o(i.follow_path) for follow_path
    ff.o(i.f_utime) refers to ff.o(i.sync) for sync
    ff.o(i.f_write) refers to ff.o(i.validate) for validate
    ff.o(i.f_write) refers to ff.o(i.create_chain) for create_chain
    ff.o(i.f_write) refers to diskio.o(i.disk_write) for disk_write
    ff.o(i.f_write) refers to ff.o(i.clust2sect) for clust2sect
    ff.o(i.f_write) refers to diskio.o(i.disk_read) for disk_read
    ff.o(i.f_write) refers to ff.o(i.mem_cpy) for mem_cpy
    ff.o(i.follow_path) refers to ff.o(i.dir_seek) for dir_seek
    ff.o(i.follow_path) refers to ff.o(i.create_name) for create_name
    ff.o(i.follow_path) refers to ff.o(i.dir_find) for dir_find
    ff.o(i.get_cluster) refers to ff.o(i.move_window) for move_window
    ff.o(i.move_window) refers to diskio.o(i.disk_write) for disk_write
    ff.o(i.move_window) refers to diskio.o(i.disk_read) for disk_read
    ff.o(i.put_cluster) refers to ff.o(i.move_window) for move_window
    ff.o(i.remove_chain) refers to ff.o(i.get_cluster) for get_cluster
    ff.o(i.remove_chain) refers to ff.o(i.put_cluster) for put_cluster
    ff.o(i.sync) refers to ff.o(i.move_window) for move_window
    ff.o(i.sync) refers to ff.o(i.mem_set) for mem_set
    ff.o(i.sync) refers to diskio.o(i.disk_write) for disk_write
    ff.o(i.sync) refers to diskio.o(i.disk_ioctl) for disk_ioctl
    ff.o(i.validate) refers to diskio.o(i.disk_status) for disk_status
    ff.o(.data) refers to ff.o(.bss) for my_disk
    uart1.o(i.UART1_Configuration) refers to stm32f10x_rcc.o(i.RCC_APB2PeriphClockCmd) for RCC_APB2PeriphClockCmd
    uart1.o(i.UART1_Configuration) refers to stm32f10x_gpio.o(i.GPIO_Init) for GPIO_Init
    uart1.o(i.UART1_Configuration) refers to stm32f10x_usart.o(i.USART_ClockInit) for USART_ClockInit
    uart1.o(i.UART1_Configuration) refers to stm32f10x_usart.o(i.USART_Init) for USART_Init
    uart1.o(i.UART1_Configuration) refers to stm32f10x_usart.o(i.USART_ClearFlag) for USART_ClearFlag
    uart1.o(i.UART1_Configuration) refers to stm32f10x_usart.o(i.USART_ITConfig) for USART_ITConfig
    uart1.o(i.UART1_Configuration) refers to stm32f10x_usart.o(i.USART_Cmd) for USART_Cmd
    uart1.o(i.UART1_Configuration) refers to uart1.o(i.USART1_Interrupts_Config) for USART1_Interrupts_Config
    uart1.o(i.UART1_Configuration) refers to uart1.o(.data) for RxCounter
    uart1.o(i.USART1_IRQHandler) refers to stm32f10x_usart.o(i.USART_GetITStatus) for USART_GetITStatus
    uart1.o(i.USART1_IRQHandler) refers to stm32f10x_usart.o(i.USART_ReceiveData) for USART_ReceiveData
    uart1.o(i.USART1_IRQHandler) refers to stm32f10x_usart.o(i.USART_SendData) for USART_SendData
    uart1.o(i.USART1_IRQHandler) refers to stm32f10x_usart.o(i.USART_ITConfig) for USART_ITConfig
    uart1.o(i.USART1_IRQHandler) refers to uart1.o(.data) for RxCounter
    uart1.o(i.USART1_Interrupts_Config) refers to misc.o(i.NVIC_Init) for NVIC_Init
    uart1.o(i.fgetc) refers to stm32f10x_usart.o(i.USART_GetFlagStatus) for USART_GetFlagStatus
    uart1.o(i.fgetc) refers to stm32f10x_usart.o(i.USART_ReceiveData) for USART_ReceiveData
    uart1.o(i.fputc) refers to stm32f10x_usart.o(i.USART_GetFlagStatus) for USART_GetFlagStatus
    uart2.o(i.UART2_Configuration) refers to stm32f10x_rcc.o(i.RCC_APB2PeriphClockCmd) for RCC_APB2PeriphClockCmd
    uart2.o(i.UART2_Configuration) refers to stm32f10x_rcc.o(i.RCC_APB1PeriphClockCmd) for RCC_APB1PeriphClockCmd
    uart2.o(i.UART2_Configuration) refers to stm32f10x_gpio.o(i.GPIO_Init) for GPIO_Init
    uart2.o(i.UART2_Configuration) refers to stm32f10x_usart.o(i.USART_ClockInit) for USART_ClockInit
    uart2.o(i.UART2_Configuration) refers to stm32f10x_usart.o(i.USART_Init) for USART_Init
    uart2.o(i.UART2_Configuration) refers to stm32f10x_usart.o(i.USART_ClearFlag) for USART_ClearFlag
    uart2.o(i.UART2_Configuration) refers to stm32f10x_usart.o(i.USART_ITConfig) for USART_ITConfig
    uart2.o(i.UART2_Configuration) refers to stm32f10x_usart.o(i.USART_Cmd) for USART_Cmd
    uart2.o(i.UART2_Configuration) refers to uart2.o(i.USART2_Interrupts_Config) for USART2_Interrupts_Config
    uart2.o(i.UART2_Configuration) refers to uart2.o(.data) for TxCounter
    uart2.o(i.USART2_IRQHandler) refers to stm32f10x_usart.o(i.USART_GetITStatus) for USART_GetITStatus
    uart2.o(i.USART2_IRQHandler) refers to stm32f10x_usart.o(i.USART_ReceiveData) for USART_ReceiveData
    uart2.o(i.USART2_IRQHandler) refers to systick.o(i.GetSysTick_10Ms) for GetSysTick_10Ms
    uart2.o(i.USART2_IRQHandler) refers to stm32f10x_usart.o(i.USART_SendData) for USART_SendData
    uart2.o(i.USART2_IRQHandler) refers to stm32f10x_usart.o(i.USART_ITConfig) for USART_ITConfig
    uart2.o(i.USART2_IRQHandler) refers to uart2.o(.data) for rec_systick_mark
    uart2.o(i.USART2_IRQHandler) refers to uart2.o(.bss) for RxBuffer
    uart2.o(i.USART2_Interrupts_Config) refers to misc.o(i.NVIC_Init) for NVIC_Init
    uart2.o(i.gps_comm_clr) refers to uart2.o(.data) for gps_rec_count
    uart2.o(i.gps_comm_get_len) refers to uart2.o(.data) for gps_rec_count
    uart2.o(i.gps_comm_read) refers to strcpy.o(.text) for strcpy
    uart2.o(i.gps_comm_read) refers to uart2.o(.data) for gps_rec_count
    uart2.o(i.gps_comm_read) refers to uart2.o(.bss) for RxBuffer
    uart2.o(i.uart2_fgetc) refers to stm32f10x_usart.o(i.USART_GetFlagStatus) for USART_GetFlagStatus
    uart2.o(i.uart2_fgetc) refers to stm32f10x_usart.o(i.USART_ReceiveData) for USART_ReceiveData
    uart2.o(i.uart2_fputc) refers to stm32f10x_usart.o(i.USART_GetFlagStatus) for USART_GetFlagStatus
    uart3.o(i.UART3_Configuration) refers to stm32f10x_rcc.o(i.RCC_APB2PeriphClockCmd) for RCC_APB2PeriphClockCmd
    uart3.o(i.UART3_Configuration) refers to stm32f10x_rcc.o(i.RCC_APB1PeriphClockCmd) for RCC_APB1PeriphClockCmd
    uart3.o(i.UART3_Configuration) refers to stm32f10x_gpio.o(i.GPIO_Init) for GPIO_Init
    uart3.o(i.UART3_Configuration) refers to stm32f10x_usart.o(i.USART_ClockInit) for USART_ClockInit
    uart3.o(i.UART3_Configuration) refers to stm32f10x_usart.o(i.USART_Init) for USART_Init
    uart3.o(i.UART3_Configuration) refers to stm32f10x_usart.o(i.USART_ClearFlag) for USART_ClearFlag
    uart3.o(i.UART3_Configuration) refers to stm32f10x_usart.o(i.USART_ITConfig) for USART_ITConfig
    uart3.o(i.UART3_Configuration) refers to stm32f10x_usart.o(i.USART_Cmd) for USART_Cmd
    uart3.o(i.UART3_Configuration) refers to uart3.o(i.USART3_Interrupts_Config) for USART3_Interrupts_Config
    uart3.o(i.USART3_IRQHandler) refers to stm32f10x_usart.o(i.USART_GetITStatus) for USART_GetITStatus
    uart3.o(i.USART3_IRQHandler) refers to stm32f10x_usart.o(i.USART_ReceiveData) for USART_ReceiveData
    uart3.o(i.USART3_IRQHandler) refers to systick.o(i.GetSysTick_10Ms) for GetSysTick_10Ms
    uart3.o(i.USART3_IRQHandler) refers to stm32f10x_usart.o(i.USART_ITConfig) for USART_ITConfig
    uart3.o(i.USART3_IRQHandler) refers to stm32f10x_usart.o(i.USART_SendData) for USART_SendData
    uart3.o(i.USART3_IRQHandler) refers to uart3.o(.data) for rec_systick_mark
    uart3.o(i.USART3_IRQHandler) refers to uart3.o(.bss) for gprs_rx_buffer
    uart3.o(i.USART3_Interrupts_Config) refers to misc.o(i.NVIC_Init) for NVIC_Init
    uart3.o(i.uart3_clr) refers to uart3.o(.data) for gprs_rx_cnt
    uart3.o(i.uart3_clr) refers to uart3.o(.bss) for gprs_rx_buffer
    uart3.o(i.uart3_fgetc) refers to stm32f10x_usart.o(i.USART_GetFlagStatus) for USART_GetFlagStatus
    uart3.o(i.uart3_fgetc) refers to stm32f10x_usart.o(i.USART_ReceiveData) for USART_ReceiveData
    uart3.o(i.uart3_fputc) refers to stm32f10x_usart.o(i.USART_GetFlagStatus) for USART_GetFlagStatus
    uart3.o(i.uart3_get_reclen) refers to uart3.o(.data) for gprs_rx_cnt
    uart3.o(i.uart3_get_rxbuf_ptr) refers to uart3.o(.bss) for gprs_rx_buffer
    uart3.o(i.uart3_printf) refers to strlen.o(.text) for strlen
    uart3.o(i.uart3_printf) refers to uart3.o(i.uart3_fputc) for uart3_fputc
    uart3.o(i.uart3_printf) refers to uart3.o(.data) for gprs_tx_length
    uart3.o(i.uart3_read) refers to strcpy.o(.text) for strcpy
    uart3.o(i.uart3_read) refers to uart3.o(.data) for gprs_rx_cnt
    uart3.o(i.uart3_read) refers to uart3.o(.bss) for gprs_rx_buffer
    uart3.o(i.uart3_sendbf) refers to uart3.o(i.uart3_fputc) for uart3_fputc
    uart3.o(i.uart3_sendbf) refers to uart3.o(.data) for gprs_tx_length
    uart3.o(i.uart3_sendbf_f) refers to stm32f10x_usart.o(i.USART_ITConfig) for USART_ITConfig
    uart3.o(i.uart3_sendbf_f) refers to uart3.o(.data) for gprs_tx_cnt
    uart3.o(i.uart3_sendbf_finished) refers to uart3.o(.data) for gprs_tx_length
    stm32f10x_flash.o(i.FLASH_EnableWriteProtection) refers to stm32f10x_flash.o(i.FLASH_WaitForLastOperation) for FLASH_WaitForLastOperation
    stm32f10x_flash.o(i.FLASH_EraseAllBank1Pages) refers to stm32f10x_flash.o(i.FLASH_WaitForLastBank1Operation) for FLASH_WaitForLastBank1Operation
    stm32f10x_flash.o(i.FLASH_EraseAllPages) refers to stm32f10x_flash.o(i.FLASH_WaitForLastOperation) for FLASH_WaitForLastOperation
    stm32f10x_flash.o(i.FLASH_EraseOptionBytes) refers to stm32f10x_flash.o(i.FLASH_GetReadOutProtectionStatus) for FLASH_GetReadOutProtectionStatus
    stm32f10x_flash.o(i.FLASH_EraseOptionBytes) refers to stm32f10x_flash.o(i.FLASH_WaitForLastOperation) for FLASH_WaitForLastOperation
    stm32f10x_flash.o(i.FLASH_ErasePage) refers to stm32f10x_flash.o(i.FLASH_WaitForLastOperation) for FLASH_WaitForLastOperation
    stm32f10x_flash.o(i.FLASH_ProgramHalfWord) refers to stm32f10x_flash.o(i.FLASH_WaitForLastOperation) for FLASH_WaitForLastOperation
    stm32f10x_flash.o(i.FLASH_ProgramOptionByteData) refers to stm32f10x_flash.o(i.FLASH_WaitForLastOperation) for FLASH_WaitForLastOperation
    stm32f10x_flash.o(i.FLASH_ProgramWord) refers to stm32f10x_flash.o(i.FLASH_WaitForLastOperation) for FLASH_WaitForLastOperation
    stm32f10x_flash.o(i.FLASH_ReadOutProtection) refers to stm32f10x_flash.o(i.FLASH_WaitForLastOperation) for FLASH_WaitForLastOperation
    stm32f10x_flash.o(i.FLASH_UserOptionByteConfig) refers to stm32f10x_flash.o(i.FLASH_WaitForLastOperation) for FLASH_WaitForLastOperation
    stm32f10x_flash.o(i.FLASH_WaitForLastBank1Operation) refers to stm32f10x_flash.o(i.FLASH_GetBank1Status) for FLASH_GetBank1Status
    stm32f10x_flash.o(i.FLASH_WaitForLastOperation) refers to stm32f10x_flash.o(i.FLASH_GetBank1Status) for FLASH_GetBank1Status
    stm32f10x_gpio.o(i.GPIO_AFIODeInit) refers to stm32f10x_rcc.o(i.RCC_APB2PeriphResetCmd) for RCC_APB2PeriphResetCmd
    stm32f10x_gpio.o(i.GPIO_DeInit) refers to stm32f10x_rcc.o(i.RCC_APB2PeriphResetCmd) for RCC_APB2PeriphResetCmd
    stm32f10x_pwr.o(i.PWR_DeInit) refers to stm32f10x_rcc.o(i.RCC_APB1PeriphResetCmd) for RCC_APB1PeriphResetCmd
    stm32f10x_rcc.o(i.RCC_GetClocksFreq) refers to stm32f10x_rcc.o(.data) for APBAHBPrescTable
    stm32f10x_rcc.o(i.RCC_WaitForHSEStartUp) refers to stm32f10x_rcc.o(i.RCC_GetFlagStatus) for RCC_GetFlagStatus
    stm32f10x_spi.o(i.I2S_Init) refers to stm32f10x_rcc.o(i.RCC_GetClocksFreq) for RCC_GetClocksFreq
    stm32f10x_spi.o(i.SPI_I2S_DeInit) refers to stm32f10x_rcc.o(i.RCC_APB2PeriphResetCmd) for RCC_APB2PeriphResetCmd
    stm32f10x_spi.o(i.SPI_I2S_DeInit) refers to stm32f10x_rcc.o(i.RCC_APB1PeriphResetCmd) for RCC_APB1PeriphResetCmd
    stm32f10x_tim.o(i.TIM_DeInit) refers to stm32f10x_rcc.o(i.RCC_APB2PeriphResetCmd) for RCC_APB2PeriphResetCmd
    stm32f10x_tim.o(i.TIM_DeInit) refers to stm32f10x_rcc.o(i.RCC_APB1PeriphResetCmd) for RCC_APB1PeriphResetCmd
    stm32f10x_tim.o(i.TIM_ETRClockMode1Config) refers to stm32f10x_tim.o(i.TIM_ETRConfig) for TIM_ETRConfig
    stm32f10x_tim.o(i.TIM_ETRClockMode2Config) refers to stm32f10x_tim.o(i.TIM_ETRConfig) for TIM_ETRConfig
    stm32f10x_tim.o(i.TIM_ICInit) refers to stm32f10x_tim.o(i.TI1_Config) for TI1_Config
    stm32f10x_tim.o(i.TIM_ICInit) refers to stm32f10x_tim.o(i.TIM_SetIC1Prescaler) for TIM_SetIC1Prescaler
    stm32f10x_tim.o(i.TIM_ICInit) refers to stm32f10x_tim.o(i.TI2_Config) for TI2_Config
    stm32f10x_tim.o(i.TIM_ICInit) refers to stm32f10x_tim.o(i.TIM_SetIC2Prescaler) for TIM_SetIC2Prescaler
    stm32f10x_tim.o(i.TIM_ICInit) refers to stm32f10x_tim.o(i.TI3_Config) for TI3_Config
    stm32f10x_tim.o(i.TIM_ICInit) refers to stm32f10x_tim.o(i.TIM_SetIC3Prescaler) for TIM_SetIC3Prescaler
    stm32f10x_tim.o(i.TIM_ICInit) refers to stm32f10x_tim.o(i.TI4_Config) for TI4_Config
    stm32f10x_tim.o(i.TIM_ICInit) refers to stm32f10x_tim.o(i.TIM_SetIC4Prescaler) for TIM_SetIC4Prescaler
    stm32f10x_tim.o(i.TIM_ITRxExternalClockConfig) refers to stm32f10x_tim.o(i.TIM_SelectInputTrigger) for TIM_SelectInputTrigger
    stm32f10x_tim.o(i.TIM_PWMIConfig) refers to stm32f10x_tim.o(i.TI1_Config) for TI1_Config
    stm32f10x_tim.o(i.TIM_PWMIConfig) refers to stm32f10x_tim.o(i.TIM_SetIC1Prescaler) for TIM_SetIC1Prescaler
    stm32f10x_tim.o(i.TIM_PWMIConfig) refers to stm32f10x_tim.o(i.TI2_Config) for TI2_Config
    stm32f10x_tim.o(i.TIM_PWMIConfig) refers to stm32f10x_tim.o(i.TIM_SetIC2Prescaler) for TIM_SetIC2Prescaler
    stm32f10x_tim.o(i.TIM_TIxExternalClockConfig) refers to stm32f10x_tim.o(i.TI2_Config) for TI2_Config
    stm32f10x_tim.o(i.TIM_TIxExternalClockConfig) refers to stm32f10x_tim.o(i.TI1_Config) for TI1_Config
    stm32f10x_tim.o(i.TIM_TIxExternalClockConfig) refers to stm32f10x_tim.o(i.TIM_SelectInputTrigger) for TIM_SelectInputTrigger
    stm32f10x_usart.o(i.USART_DeInit) refers to stm32f10x_rcc.o(i.RCC_APB2PeriphResetCmd) for RCC_APB2PeriphResetCmd
    stm32f10x_usart.o(i.USART_DeInit) refers to stm32f10x_rcc.o(i.RCC_APB1PeriphResetCmd) for RCC_APB1PeriphResetCmd
    stm32f10x_usart.o(i.USART_Init) refers to stm32f10x_rcc.o(i.RCC_GetClocksFreq) for RCC_GetClocksFreq
    stm32f10x_adc.o(i.ADC_DeInit) refers to stm32f10x_rcc.o(i.RCC_APB2PeriphResetCmd) for RCC_APB2PeriphResetCmd
    startup_stm32f10x_hd.o(RESET) refers to startup_stm32f10x_hd.o(STACK) for __initial_sp
    startup_stm32f10x_hd.o(RESET) refers to startup_stm32f10x_hd.o(.text) for Reset_Handler
    startup_stm32f10x_hd.o(RESET) refers to stm32f10x_it.o(i.NMI_Handler) for NMI_Handler
    startup_stm32f10x_hd.o(RESET) refers to stm32f10x_it.o(i.HardFault_Handler) for HardFault_Handler
    startup_stm32f10x_hd.o(RESET) refers to stm32f10x_it.o(i.MemManage_Handler) for MemManage_Handler
    startup_stm32f10x_hd.o(RESET) refers to stm32f10x_it.o(i.BusFault_Handler) for BusFault_Handler
    startup_stm32f10x_hd.o(RESET) refers to stm32f10x_it.o(i.UsageFault_Handler) for UsageFault_Handler
    startup_stm32f10x_hd.o(RESET) refers to stm32f10x_it.o(i.SVC_Handler) for SVC_Handler
    startup_stm32f10x_hd.o(RESET) refers to stm32f10x_it.o(i.DebugMon_Handler) for DebugMon_Handler
    startup_stm32f10x_hd.o(RESET) refers to stm32f10x_it.o(i.PendSV_Handler) for PendSV_Handler
    startup_stm32f10x_hd.o(RESET) refers to stm32f10x_it.o(i.SysTick_Handler) for SysTick_Handler
    startup_stm32f10x_hd.o(RESET) refers to gsensor.o(i.EXTI0_IRQHandler) for EXTI0_IRQHandler
    startup_stm32f10x_hd.o(RESET) refers to stm32f10x_it.o(i.USB_HP_CAN1_TX_IRQHandler) for USB_HP_CAN1_TX_IRQHandler
    startup_stm32f10x_hd.o(RESET) refers to stm32f10x_it.o(i.USB_LP_CAN1_RX0_IRQHandler) for USB_LP_CAN1_RX0_IRQHandler
    startup_stm32f10x_hd.o(RESET) refers to uart1.o(i.USART1_IRQHandler) for USART1_IRQHandler
    startup_stm32f10x_hd.o(RESET) refers to uart2.o(i.USART2_IRQHandler) for USART2_IRQHandler
    startup_stm32f10x_hd.o(RESET) refers to uart3.o(i.USART3_IRQHandler) for USART3_IRQHandler
    startup_stm32f10x_hd.o(RESET) refers to stm32f10x_it.o(i.SDIO_IRQHandler) for SDIO_IRQHandler
    startup_stm32f10x_hd.o(.text) refers to system_stm32f10x.o(i.SystemInit) for SystemInit
    startup_stm32f10x_hd.o(.text) refers to entry.o(.ARM.Collect$$$$00000000) for __main
    gps_receive_task.o(i.GGA_Parse) refers to gps_receive_task.o(i.nmea_get_section) for nmea_get_section
    gps_receive_task.o(i.GGA_Parse) refers to atof.o(i.atof) for atof
    gps_receive_task.o(i.GGA_Parse) refers to d2f.o(.text) for __aeabi_d2f
    gps_receive_task.o(i.GGA_Parse) refers to my_string.o(i.DecStr2Int) for DecStr2Int
    gps_receive_task.o(i.GGA_Parse) refers to gps_receive_task.o(.bss) for g_NMEAInfo
    gps_receive_task.o(i.GLL_Parse) refers to gps_receive_task.o(i.nmea_get_section) for nmea_get_section
    gps_receive_task.o(i.GLL_Parse) refers to gps_receive_task.o(.bss) for g_NMEAInfo
    gps_receive_task.o(i.GSA_Parse) refers to gps_receive_task.o(i.nmea_get_section) for nmea_get_section
    gps_receive_task.o(i.GSV_Parse) refers to gps_receive_task.o(i.nmea_get_section) for nmea_get_section
    gps_receive_task.o(i.GSV_Parse) refers to my_string.o(i.DecStr2Int) for DecStr2Int
    gps_receive_task.o(i.GetGpsState) refers to gps_receive_task.o(.data) for gGpsState
    gps_receive_task.o(i.RMC_Parse) refers to gps_receive_task.o(i.nmea_get_section) for nmea_get_section
    gps_receive_task.o(i.RMC_Parse) refers to my_string.o(i.DecStr2Int) for DecStr2Int
    gps_receive_task.o(i.RMC_Parse) refers to datetime.o(i.UTCTime2LocalTime) for UTCTime2LocalTime
    gps_receive_task.o(i.RMC_Parse) refers to atof.o(i.atof) for atof
    gps_receive_task.o(i.RMC_Parse) refers to ddiv.o(.text) for __aeabi_ddiv
    gps_receive_task.o(i.RMC_Parse) refers to dadd.o(.text) for __aeabi_dadd
    gps_receive_task.o(i.RMC_Parse) refers to dmul.o(.text) for __aeabi_dmul
    gps_receive_task.o(i.RMC_Parse) refers to dfixi.o(.text) for __aeabi_d2iz
    gps_receive_task.o(i.RMC_Parse) refers to d2f.o(.text) for __aeabi_d2f
    gps_receive_task.o(i.RMC_Parse) refers to gps_algorithm.o(.text) for transform
    gps_receive_task.o(i.VTG_Parse) refers to gps_receive_task.o(i.nmea_get_section) for nmea_get_section
    gps_receive_task.o(i.VTG_Parse) refers to my_string.o(i.DecStr2Int) for DecStr2Int
    gps_receive_task.o(i.VTG_Parse) refers to atof.o(i.atof) for atof
    gps_receive_task.o(i.VTG_Parse) refers to gps_receive_task.o(.bss) for g_NMEAInfo
    gps_receive_task.o(i.ZDA_Parse) refers to gps_receive_task.o(i.nmea_get_section) for nmea_get_section
    gps_receive_task.o(i.ZDA_Parse) refers to my_string.o(i.DecStr2Int) for DecStr2Int
    gps_receive_task.o(i.ZDA_Parse) refers to gps_receive_task.o(.bss) for g_NMEAInfo
    gps_receive_task.o(i.gps_info_init) refers to gps_receive_task.o(.bss) for g_GpsInfo
    gps_receive_task.o(i.gps_parse_proc) refers to gps_receive_task.o(i.nmea_get_frame) for nmea_get_frame
    gps_receive_task.o(i.gps_parse_proc) refers to gps_receive_task.o(i.nmea_get_info) for nmea_get_info
    gps_receive_task.o(i.gps_parse_proc) refers to gps_receive_task.o(.bss) for g_GpsInfo
    gps_receive_task.o(i.gps_task) refers to uart2.o(i.gps_comm_get_len) for gps_comm_get_len
    gps_receive_task.o(i.gps_task) refers to uart2.o(i.gps_comm_read) for gps_comm_read
    gps_receive_task.o(i.gps_task) refers to uart2.o(i.gps_comm_clr) for gps_comm_clr
    gps_receive_task.o(i.gps_task) refers to systick.o(i.GetSysTick_Sec) for GetSysTick_Sec
    gps_receive_task.o(i.gps_task) refers to printfa.o(i.__0printf) for __2printf
    gps_receive_task.o(i.gps_task) refers to gps_receive_task.o(i.gps_info_init) for gps_info_init
    gps_receive_task.o(i.gps_task) refers to system.o(i.hw_io_ctrl) for hw_io_ctrl
    gps_receive_task.o(i.gps_task) refers to systick.o(i.Wait10Ms) for Wait10Ms
    gps_receive_task.o(i.gps_task) refers to gps_receive_task.o(i.gps_parse_proc) for gps_parse_proc
    gps_receive_task.o(i.gps_task) refers to f2d.o(.text) for __aeabi_f2d
    gps_receive_task.o(i.gps_task) refers to datetime.o(i.tm2str) for tm2str
    gps_receive_task.o(i.gps_task) refers to gps_receive_task.o(.bss) for gps_nmea_bf
    gps_receive_task.o(i.gps_task) refers to gps_receive_task.o(.data) for gps_taskstate
    gps_receive_task.o(i.gps_task) refers to system.o(.bss) for g_SysCfg
    gps_receive_task.o(i.gps_taskctrl) refers to gps_receive_task.o(.data) for gps_taskstate
    gps_receive_task.o(i.gps_taskinit) refers to gps_receive_task.o(i.gps_info_init) for gps_info_init
    gps_receive_task.o(i.gps_taskinit) refers to gps_receive_task.o(i.gps_taskctrl) for gps_taskctrl
    gps_receive_task.o(i.gps_taskinit) refers to gps_receive_task.o(.data) for gGpsState
    gps_receive_task.o(i.nmea_get_frame) refers to gps_receive_task.o(i.HexToChar) for HexToChar
    gps_receive_task.o(i.nmea_get_info) refers to strcmp.o(.text) for strcmp
    gps_receive_task.o(i.nmea_get_info) refers to gps_receive_task.o(i.GGA_Parse) for GGA_Parse
    gps_receive_task.o(i.nmea_get_info) refers to gps_receive_task.o(i.GLL_Parse) for GLL_Parse
    gps_receive_task.o(i.nmea_get_info) refers to gps_receive_task.o(i.GSA_Parse) for GSA_Parse
    gps_receive_task.o(i.nmea_get_info) refers to gps_receive_task.o(i.GSV_Parse) for GSV_Parse
    gps_receive_task.o(i.nmea_get_info) refers to gps_receive_task.o(i.RMC_Parse) for RMC_Parse
    gps_receive_task.o(i.nmea_get_info) refers to gps_receive_task.o(i.VTG_Parse) for VTG_Parse
    gps_receive_task.o(i.nmea_get_info) refers to gps_receive_task.o(i.ZDA_Parse) for ZDA_Parse
    gps_receive_task.o(i.nmea_get_info) refers to gps_receive_task.o(.bss) for g_GpsInfo
    let_us_go.o(i.iTrack_task) refers to gps_receive_task.o(i.GetGpsState) for GetGpsState
    let_us_go.o(i.iTrack_task) refers to let_us_go.o(i.motion_analysis_by_gps) for motion_analysis_by_gps
    let_us_go.o(i.iTrack_task) refers to systick.o(i.GetSysTick_Sec) for GetSysTick_Sec
    let_us_go.o(i.iTrack_task) refers to system.o(.data) for gUsbLinked
    let_us_go.o(i.iTrack_task) refers to let_us_go.o(.bss) for iTrack
    let_us_go.o(i.iTrack_task) refers to gps_receive_task.o(.bss) for g_GpsInfo
    let_us_go.o(i.iTrack_task) refers to let_us_go.o(.data) for iTrack_mark_t
    let_us_go.o(i.iTrack_taskctrl) refers to systick.o(i.GetSysTick_Sec) for GetSysTick_Sec
    let_us_go.o(i.iTrack_taskctrl) refers to let_us_go.o(.data) for iTrack_mark_t
    let_us_go.o(i.iTrack_taskctrl) refers to let_us_go.o(.bss) for iTrack
    let_us_go.o(i.iTrack_taskinit) refers to let_us_go.o(.bss) for iTrack
    let_us_go.o(i.motion_analysis_by_gps) refers to systick.o(i.GetSysTick_Sec) for GetSysTick_Sec
    let_us_go.o(i.motion_analysis_by_gps) refers to let_us_go.o(i.remember_now_gps_pos) for remember_now_gps_pos
    let_us_go.o(i.motion_analysis_by_gps) refers to gps_algorithm.o(.text) for DistanceCalcs
    let_us_go.o(i.motion_analysis_by_gps) refers to fflti.o(.text) for __aeabi_i2f
    let_us_go.o(i.motion_analysis_by_gps) refers to fdiv.o(.text) for __aeabi_fdiv
    let_us_go.o(i.motion_analysis_by_gps) refers to ffixi.o(.text) for __aeabi_f2iz
    let_us_go.o(i.motion_analysis_by_gps) refers to cfrcmple.o(.text) for __aeabi_cfrcmple
    let_us_go.o(i.motion_analysis_by_gps) refers to f2d.o(.text) for __aeabi_f2d
    let_us_go.o(i.motion_analysis_by_gps) refers to printfa.o(i.__0printf) for __2printf
    let_us_go.o(i.motion_analysis_by_gps) refers to let_us_go.o(.bss) for g_NewPosition
    let_us_go.o(i.motion_analysis_by_gps) refers to gps_receive_task.o(.bss) for g_GpsInfo
    let_us_go.o(i.motion_analysis_by_gps) refers to system.o(.bss) for g_SysCfg
    let_us_go.o(i.now_position_to_xml) refers to printfa.o(i.__0sprintf) for __2sprintf
    let_us_go.o(i.now_position_to_xml) refers to f2d.o(.text) for __aeabi_f2d
    let_us_go.o(i.now_position_to_xml) refers to strlen.o(.text) for strlen
    let_us_go.o(i.now_position_to_xml) refers to let_us_go.o(.bss) for g_NewPosition
    let_us_go.o(i.remember_now_gps_pos) refers to memcpya.o(.text) for __aeabi_memcpy4
    systick.o(i.GetSysTick_10Ms) refers to systick.o(.data) for systick
    systick.o(i.GetSysTick_Sec) refers to systick.o(.data) for systick
    systick.o(i.SysTick_HandlerService) refers to gsensor.o(i.gsensor_task) for gsensor_task
    systick.o(i.SysTick_HandlerService) refers to system.o(i.led_task) for led_task
    systick.o(i.SysTick_HandlerService) refers to system.o(i.beep_task) for beep_task
    systick.o(i.SysTick_HandlerService) refers to systick.o(.data) for systick
    systick.o(i.SysTick_Init) refers to systick.o(.data) for systick
    systick.o(i.SysTick_Init) refers to system_stm32f10x.o(.data) for SystemCoreClock
    systick.o(i.Wait10Ms) refers to systick.o(i.GetSysTick_10Ms) for GetSysTick_10Ms
    system.o(i.ADC_Configuration) refers to stm32f10x_gpio.o(i.GPIO_Init) for GPIO_Init
    system.o(i.ADC_Configuration) refers to stm32f10x_rcc.o(i.RCC_APB2PeriphClockCmd) for RCC_APB2PeriphClockCmd
    system.o(i.ADC_Configuration) refers to stm32f10x_adc.o(i.ADC_Init) for ADC_Init
    system.o(i.ADC_Configuration) refers to stm32f10x_adc.o(i.ADC_RegularChannelConfig) for ADC_RegularChannelConfig
    system.o(i.ADC_task) refers to systick.o(i.GetSysTick_Sec) for GetSysTick_Sec
    system.o(i.ADC_task) refers to stm32f10x_rcc.o(i.RCC_APB2PeriphClockCmd) for RCC_APB2PeriphClockCmd
    system.o(i.ADC_task) refers to stm32f10x_adc.o(i.ADC_Cmd) for ADC_Cmd
    system.o(i.ADC_task) refers to stm32f10x_adc.o(i.ADC_SoftwareStartConvCmd) for ADC_SoftwareStartConvCmd
    system.o(i.ADC_task) refers to stm32f10x_adc.o(i.ADC_GetFlagStatus) for ADC_GetFlagStatus
    system.o(i.ADC_task) refers to stm32f10x_adc.o(i.ADC_GetConversionValue) for ADC_GetConversionValue
    system.o(i.ADC_task) refers to ffltui.o(.text) for __aeabi_ui2f
    system.o(i.ADC_task) refers to fmul.o(.text) for __aeabi_fmul
    system.o(i.ADC_task) refers to f2d.o(.text) for __aeabi_f2d
    system.o(i.ADC_task) refers to dmul.o(.text) for __aeabi_dmul
    system.o(i.ADC_task) refers to ddiv.o(.text) for __aeabi_ddiv
    system.o(i.ADC_task) refers to dadd.o(.text) for __aeabi_dadd
    system.o(i.ADC_task) refers to d2f.o(.text) for __aeabi_d2f
    system.o(i.ADC_task) refers to fdiv.o(.text) for __aeabi_fdiv
    system.o(i.ADC_task) refers to cdcmple.o(.text) for __aeabi_cdcmple
    system.o(i.ADC_task) refers to printfa.o(i.__0printf) for __2printf
    system.o(i.ADC_task) refers to system.o(i.hw_io_ctrl) for hw_io_ctrl
    system.o(i.ADC_task) refers to system.o(i.led_taskctrl) for led_taskctrl
    system.o(i.ADC_task) refers to cdrcmple.o(.text) for __aeabi_cdrcmple
    system.o(i.ADC_task) refers to system.o(.data) for adc_task_st
    system.o(i.ADC_taskctrl) refers to system.o(.data) for adc_task_st
    system.o(i.ADC_taskinit) refers to system.o(i.ADC_Configuration) for ADC_Configuration
    system.o(i.ADC_taskinit) refers to system.o(i.ADC_task) for ADC_task
    system.o(i.ADC_taskinit) refers to system.o(.data) for adc_task_t_mark
    system.o(i.beep_task) refers to system.o(i.hw_io_ctrl) for hw_io_ctrl
    system.o(i.beep_task) refers to system.o(.data) for beep_taskstate
    system.o(i.beep_taskctrl) refers to system.o(i.hw_io_ctrl) for hw_io_ctrl
    system.o(i.beep_taskctrl) refers to system.o(.data) for beep_taskstate
    system.o(i.beep_taskctrl) refers to system.o(.bss) for g_SysCfg
    system.o(i.beep_taskinit) refers to system.o(i.hw_io_ctrl) for hw_io_ctrl
    system.o(i.beep_taskinit) refers to system.o(.data) for beep_taskstate
    system.o(i.hw_io_ctrl) refers to stm32f10x_gpio.o(i.GPIO_ReadInputDataBit) for GPIO_ReadInputDataBit
    system.o(i.hw_io_ctrl) refers to stm32f10x_gpio.o(i.GPIO_SetBits) for GPIO_SetBits
    system.o(i.hw_io_ctrl) refers to systick.o(i.Wait10Ms) for Wait10Ms
    system.o(i.hw_io_ctrl) refers to stm32f10x_gpio.o(i.GPIO_ResetBits) for GPIO_ResetBits
    system.o(i.hw_io_init) refers to stm32f10x_rcc.o(i.RCC_APB2PeriphClockCmd) for RCC_APB2PeriphClockCmd
    system.o(i.hw_io_init) refers to stm32f10x_gpio.o(i.GPIO_Init) for GPIO_Init
    system.o(i.led_task) refers to system.o(i.hw_io_ctrl) for hw_io_ctrl
    system.o(i.led_task) refers to system.o(.bss) for led
    system.o(i.led_taskctrl) refers to system.o(i.hw_io_ctrl) for hw_io_ctrl
    system.o(i.led_taskctrl) refers to system.o(.bss) for led
    system.o(i.led_taskinit) refers to system.o(.bss) for led
    system.o(i.myPWR_EnterSleepMode) refers to stm32f10x_usart.o(i.USART_Cmd) for USART_Cmd
    system.o(i.myPWR_EnterSleepMode) refers to systick.o(i.SysTick_Ctrl) for SysTick_Ctrl
    system.o(i.myPWR_EnterSleepMode) refers to stm32f10x_pwr.o(i.PWR_EnterSTOPMode) for PWR_EnterSTOPMode
    system.o(i.myPWR_EnterSleepMode) refers to system_stm32f10x.o(i.SystemInit) for SystemInit
    system.o(i.syscfg_init) refers to system.o(.bss) for g_SysCfg
    system.o(i.system_task) refers to system.o(i.hw_io_ctrl) for hw_io_ctrl
    system.o(i.system_task) refers to f2d.o(.text) for __aeabi_f2d
    system.o(i.system_task) refers to cdcmple.o(.text) for __aeabi_cdcmple
    system.o(i.system_task) refers to system.o(i.beep_taskctrl) for beep_taskctrl
    system.o(i.system_task) refers to system.o(i.system_taskctrl) for system_taskctrl
    system.o(i.system_task) refers to cdrcmple.o(.text) for __aeabi_cdrcmple
    system.o(i.system_task) refers to printfa.o(i.__0printf) for __2printf
    system.o(i.system_task) refers to datetime.o(i.sys_time) for sys_time
    system.o(i.system_task) refers to gps_receive_task.o(i.GetGpsState) for GetGpsState
    system.o(i.system_task) refers to gps_receive_task.o(i.gps_taskctrl) for gps_taskctrl
    system.o(i.system_task) refers to sim800.o(i.GetModemState) for GetModemState
    system.o(i.system_task) refers to sim800.o(i.gprs_taskctrl) for gprs_taskctrl
    system.o(i.system_task) refers to systick.o(i.GetSysTick_Sec) for GetSysTick_Sec
    system.o(i.system_task) refers to sim800.o(i.GetModemMode) for GetModemMode
    system.o(i.system_task) refers to system.o(i.led_taskctrl) for led_taskctrl
    system.o(i.system_task) refers to system.o(i.myPWR_EnterSleepMode) for myPWR_EnterSleepMode
    system.o(i.system_task) refers to system.o(i.ADC_taskctrl) for ADC_taskctrl
    system.o(i.system_task) refers to system.o(i.ADC_task) for ADC_task
    system.o(i.system_task) refers to main.o(i.SoftReset) for SoftReset
    system.o(i.system_task) refers to system.o(.data) for gPowerState
    system.o(i.system_task) refers to system.o(.bss) for g_System
    system.o(i.system_task) refers to gps_receive_task.o(.bss) for g_GpsInfo
    system.o(i.system_task) refers to yeelink.o(.data) for g_YeelinkNextTime
    system.o(i.system_task) refers to yeelink.o(.bss) for iPos
    system.o(i.system_taskctrl) refers to gsensor.o(i.set_gsensor_ctrl) for set_gsensor_ctrl
    system.o(i.system_taskctrl) refers to systick.o(i.GetSysTick_Sec) for GetSysTick_Sec
    system.o(i.system_taskctrl) refers to printfa.o(i.__0printf) for __2printf
    system.o(i.system_taskctrl) refers to let_us_go.o(i.iTrack_taskctrl) for iTrack_taskctrl
    system.o(i.system_taskctrl) refers to sim800.o(i.gprs_taskctrl) for gprs_taskctrl
    system.o(i.system_taskctrl) refers to gpx_record_task.o(.text) for gpx_file_save
    system.o(i.system_taskctrl) refers to gps_receive_task.o(i.gps_taskctrl) for gps_taskctrl
    system.o(i.system_taskctrl) refers to system.o(.data) for system_task_t_mark
    system.o(i.system_taskctrl) refers to system.o(.bss) for g_System
    system.o(i.system_taskinit) refers to system.o(i.system_taskctrl) for system_taskctrl
    system.o(i.system_taskinit) refers to gsensor.o(i.get_gsensor_state) for get_gsensor_state
    system.o(i.system_taskinit) refers to gsensor.o(i.set_gsensor_ctrl) for set_gsensor_ctrl
    system.o(i.system_taskinit) refers to system.o(.data) for gUsbLinked
    my_string.o(i.DecStr2Int) refers to my_string.o(i.isdec) for isdec
    my_string.o(i.Int2DecStr) refers to my_string.o(.data) for str
    my_string.o(i.float2str) refers to printfa.o(i.__0sprintf) for __2sprintf
    my_string.o(i.float2str) refers to my_string.o(.bss) for float_str
    my_string.o(i.isdecstring) refers to my_string.o(i.isdec) for isdec
    datetime.o(i.UTCTime2LocalTime) refers to memseta.o(.text) for __aeabi_memclr4
    datetime.o(i.UTCTime2LocalTime) refers to memcpya.o(.text) for __aeabi_memcpy4
    datetime.o(i.UTCTime2LocalTime) refers to datetime.o(i.IsLeapYear) for IsLeapYear
    datetime.o(i.sys_time) refers to datetime.o(.bss) for local_time
    datetime.o(i.tm2str) refers to printfa.o(i.__0sprintf) for __2sprintf
    datetime.o(i.tm2str) refers to datetime.o(.bss) for time_str
    datetime.o(i.xml_time) refers to printfa.o(i.__0sprintf) for __2sprintf
    datetime.o(i.xml_time) refers to datetime.o(.bss) for local_time
    w25xx.o(i.get_spiflash_info) refers to w25xx.o(.data) for device_id
    w25xx.o(i.spi_port_init) refers to stm32f10x_rcc.o(i.RCC_APB2PeriphClockCmd) for RCC_APB2PeriphClockCmd
    w25xx.o(i.spi_port_init) refers to stm32f10x_gpio.o(i.GPIO_Init) for GPIO_Init
    w25xx.o(i.spi_port_init) refers to stm32f10x_gpio.o(i.GPIO_SetBits) for GPIO_SetBits
    w25xx.o(i.spi_port_init) refers to stm32f10x_spi.o(i.SPI_I2S_DeInit) for SPI_I2S_DeInit
    w25xx.o(i.spi_port_init) refers to stm32f10x_spi.o(i.SPI_Init) for SPI_Init
    w25xx.o(i.spi_port_init) refers to stm32f10x_spi.o(i.SPI_Cmd) for SPI_Cmd
    w25xx.o(i.spi_port_init) refers to stm32f10x_spi.o(i.SPI_CalculateCRC) for SPI_CalculateCRC
    w25xx.o(i.spi_readwrite) refers to stm32f10x_spi.o(i.SPI_I2S_GetFlagStatus) for SPI_I2S_GetFlagStatus
    w25xx.o(i.spi_readwrite) refers to stm32f10x_spi.o(i.SPI_I2S_SendData) for SPI_I2S_SendData
    w25xx.o(i.spi_readwrite) refers to stm32f10x_spi.o(i.SPI_I2S_ReceiveData) for SPI_I2S_ReceiveData
    w25xx.o(i.w25xx_get_device_id) refers to w25xx.o(.data) for device_id
    w25xx.o(i.w25xx_init) refers to w25xx.o(i.spi_port_init) for spi_port_init
    w25xx.o(i.w25xx_init) refers to stm32f10x_gpio.o(i.GPIO_ResetBits) for GPIO_ResetBits
    w25xx.o(i.w25xx_init) refers to w25xx.o(i.spi_readwrite) for spi_readwrite
    w25xx.o(i.w25xx_init) refers to stm32f10x_gpio.o(i.GPIO_SetBits) for GPIO_SetBits
    w25xx.o(i.w25xx_init) refers to w25xx.o(.data) for device_id
    w25xx.o(i.w25xx_page_write) refers to stm32f10x_gpio.o(i.GPIO_ResetBits) for GPIO_ResetBits
    w25xx.o(i.w25xx_page_write) refers to w25xx.o(i.spi_readwrite) for spi_readwrite
    w25xx.o(i.w25xx_page_write) refers to stm32f10x_gpio.o(i.GPIO_SetBits) for GPIO_SetBits
    w25xx.o(i.w25xx_page_write) refers to w25xx.o(i.w25xx_read_status) for w25xx_read_status
    w25xx.o(i.w25xx_read) refers to stm32f10x_gpio.o(i.GPIO_ResetBits) for GPIO_ResetBits
    w25xx.o(i.w25xx_read) refers to w25xx.o(i.spi_readwrite) for spi_readwrite
    w25xx.o(i.w25xx_read) refers to stm32f10x_gpio.o(i.GPIO_SetBits) for GPIO_SetBits
    w25xx.o(i.w25xx_read_status) refers to stm32f10x_gpio.o(i.GPIO_ResetBits) for GPIO_ResetBits
    w25xx.o(i.w25xx_read_status) refers to stm32f10x_spi.o(i.SPI_I2S_GetFlagStatus) for SPI_I2S_GetFlagStatus
    w25xx.o(i.w25xx_read_status) refers to stm32f10x_spi.o(i.SPI_I2S_SendData) for SPI_I2S_SendData
    w25xx.o(i.w25xx_read_status) refers to stm32f10x_spi.o(i.SPI_I2S_ReceiveData) for SPI_I2S_ReceiveData
    w25xx.o(i.w25xx_read_status) refers to stm32f10x_gpio.o(i.GPIO_SetBits) for GPIO_SetBits
    sim800.o(i.GetModemMode) refers to sim800.o(.data) for gModemState
    sim800.o(i.GetModemState) refers to sim800.o(.data) for gModemState
    sim800.o(i.WinSocketClrState) refers to sim800.o(.bss) for winsocket
    sim800.o(i.WinSocketGetState) refers to sim800.o(.bss) for winsocket
    sim800.o(i.WinSocketInit) refers to printfa.o(i.__0sprintf) for __2sprintf
    sim800.o(i.WinSocketInit) refers to printfa.o(i.__0printf) for __2printf
    sim800.o(i.WinSocketInit) refers to sim800.o(.bss) for winsocket
    sim800.o(i.WinSocketSend) refers to sim800.o(i.GetModemState) for GetModemState
    sim800.o(i.WinSocketSend) refers to printfa.o(i.__0printf) for __2printf
    sim800.o(i.WinSocketSend) refers to sim800.o(.data) for gprs_taskstate
    sim800.o(i.WinSocketSend) refers to sim800.o(.bss) for winsocket
    sim800.o(i.atcmd_ack_is) refers to strstr.o(.text) for strstr
    sim800.o(i.atcmd_get_ack_section) refers to uart3.o(.bss) for gprs_rx_buffer
    sim800.o(i.atcmd_wait_respond) refers to systick.o(i.GetSysTick_10Ms) for GetSysTick_10Ms
    sim800.o(i.atcmd_wait_respond) refers to uart3.o(i.uart3_get_reclen) for uart3_get_reclen
    sim800.o(i.check_ipnet_status) refers to sim800.o(i.GetModemState) for GetModemState
    sim800.o(i.check_ipnet_status) refers to sim800.o(i.get_cipstatus) for get_cipstatus
    sim800.o(i.check_ipnet_status) refers to sim800.o(i.send_atcmd) for send_atcmd
    sim800.o(i.check_ipnet_status) refers to sim800.o(.data) for gModemState
    sim800.o(i.check_sim_card) refers to system.o(i.hw_io_ctrl) for hw_io_ctrl
    sim800.o(i.check_sim_card) refers to sim800.o(.data) for gModemState
    sim800.o(i.get_CSQ) refers to sim800.o(i.send_atcmd) for send_atcmd
    sim800.o(i.get_CSQ) refers to sim800.o(i.atcmd_get_ack_section) for atcmd_get_ack_section
    sim800.o(i.get_CSQ) refers to my_string.o(i.DecStr2Int) for DecStr2Int
    sim800.o(i.get_CSQ) refers to sim800.o(.data) for gModemState
    sim800.o(i.get_cipstatus) refers to sim800.o(i.send_atcmd) for send_atcmd
    sim800.o(i.get_cipstatus) refers to sim800.o(i.atcmd_ack_is) for atcmd_ack_is
    sim800.o(i.get_cipstatus) refers to uart3.o(.bss) for gprs_rx_buffer
    sim800.o(i.get_gprs_status) refers to sim800.o(i.send_atcmd) for send_atcmd
    sim800.o(i.get_gprs_status) refers to sim800.o(i.atcmd_get_ack_section) for atcmd_get_ack_section
    sim800.o(i.get_gprs_status) refers to sim800.o(.data) for gModemState
    sim800.o(i.get_gsm_status) refers to sim800.o(i.send_atcmd) for send_atcmd
    sim800.o(i.get_gsm_status) refers to sim800.o(i.atcmd_get_ack_section) for atcmd_get_ack_section
    sim800.o(i.get_gsm_status) refers to sim800.o(.data) for gModemState
    sim800.o(i.gprs_task) refers to sim800.o(i.GetModemState) for GetModemState
    sim800.o(i.gprs_task) refers to sim800.o(i.check_sim_card) for check_sim_card
    sim800.o(i.gprs_task) refers to sim800.o(i.gprs_taskctrl) for gprs_taskctrl
    sim800.o(i.gprs_task) refers to systick.o(i.GetSysTick_Sec) for GetSysTick_Sec
    sim800.o(i.gprs_task) refers to sim800.o(i.modem_poweron_flow) for modem_poweron_flow
    sim800.o(i.gprs_task) refers to sim800.o(i.GetModemMode) for GetModemMode
    sim800.o(i.gprs_task) refers to sim800.o(i.modem_poweroff_flow) for modem_poweroff_flow
    sim800.o(i.gprs_task) refers to system.o(i.led_taskctrl) for led_taskctrl
    sim800.o(i.gprs_task) refers to printfa.o(i.__0printf) for __2printf
    sim800.o(i.gprs_task) refers to sim800.o(i.send_atcmd) for send_atcmd
    sim800.o(i.gprs_task) refers to sim800.o(i.socket_open) for socket_open
    sim800.o(i.gprs_task) refers to sim800.o(i.socket_send) for socket_send
    sim800.o(i.gprs_task) refers to uart3.o(i.uart3_get_reclen) for uart3_get_reclen
    sim800.o(i.gprs_task) refers to sim800.o(i.atcmd_ack_is) for atcmd_ack_is
    sim800.o(i.gprs_task) refers to sim800.o(i.socket_query) for socket_query
    sim800.o(i.gprs_task) refers to sim800.o(i.test_modem) for test_modem
    sim800.o(i.gprs_task) refers to sim800.o(i.get_CSQ) for get_CSQ
    sim800.o(i.gprs_task) refers to sim800.o(i.get_gsm_status) for get_gsm_status
    sim800.o(i.gprs_task) refers to sim800.o(i.get_gprs_status) for get_gprs_status
    sim800.o(i.gprs_task) refers to sim800.o(i.check_ipnet_status) for check_ipnet_status
    sim800.o(i.gprs_task) refers to f2d.o(.text) for __aeabi_f2d
    sim800.o(i.gprs_task) refers to cdrcmple.o(.text) for __aeabi_cdrcmple
    sim800.o(i.gprs_task) refers to sim800.o(.data) for gprs_taskstate
    sim800.o(i.gprs_task) refers to sim800.o(.bss) for winsocket
    sim800.o(i.gprs_task) refers to uart3.o(.bss) for gprs_rx_buffer
    sim800.o(i.gprs_task) refers to system.o(.data) for g_BatteryVoltage
    sim800.o(i.gprs_taskctrl) refers to systick.o(i.GetSysTick_Sec) for GetSysTick_Sec
    sim800.o(i.gprs_taskctrl) refers to sim800.o(i.GetModemState) for GetModemState
    sim800.o(i.gprs_taskctrl) refers to sim800.o(i.GetModemMode) for GetModemMode
    sim800.o(i.gprs_taskctrl) refers to sim800.o(i.send_atcmd) for send_atcmd
    sim800.o(i.gprs_taskctrl) refers to printfa.o(i.__0printf) for __2printf
    sim800.o(i.gprs_taskctrl) refers to sim800.o(.data) for task_t_mark
    sim800.o(i.gprs_taskinit) refers to system.o(i.led_taskctrl) for led_taskctrl
    sim800.o(i.gprs_taskinit) refers to sim800.o(i.gprs_taskctrl) for gprs_taskctrl
    sim800.o(i.gprs_taskinit) refers to sim800.o(.data) for gModemState
    sim800.o(i.modem_poweroff_flow) refers to sim800.o(i.test_modem) for test_modem
    sim800.o(i.modem_poweroff_flow) refers to printfa.o(i.__0printf) for __2printf
    sim800.o(i.modem_poweroff_flow) refers to sim800.o(i.send_atcmd) for send_atcmd
    sim800.o(i.modem_poweroff_flow) refers to system.o(i.led_taskctrl) for led_taskctrl
    sim800.o(i.modem_poweroff_flow) refers to system.o(i.hw_io_ctrl) for hw_io_ctrl
    sim800.o(i.modem_poweroff_flow) refers to systick.o(i.GetSysTick_Sec) for GetSysTick_Sec
    sim800.o(i.modem_poweroff_flow) refers to sim800.o(.data) for md_poweroff_step
    sim800.o(i.modem_poweron_flow) refers to systick.o(i.GetSysTick_Sec) for GetSysTick_Sec
    sim800.o(i.modem_poweron_flow) refers to system.o(i.led_taskctrl) for led_taskctrl
    sim800.o(i.modem_poweron_flow) refers to printfa.o(i.__0printf) for __2printf
    sim800.o(i.modem_poweron_flow) refers to f2d.o(.text) for __aeabi_f2d
    sim800.o(i.modem_poweron_flow) refers to cdrcmple.o(.text) for __aeabi_cdrcmple
    sim800.o(i.modem_poweron_flow) refers to sim800.o(i.test_modem) for test_modem
    sim800.o(i.modem_poweron_flow) refers to system.o(i.hw_io_ctrl) for hw_io_ctrl
    sim800.o(i.modem_poweron_flow) refers to sim800.o(i.send_atcmd) for send_atcmd
    sim800.o(i.modem_poweron_flow) refers to sim800.o(i.printf_strbf) for printf_strbf
    sim800.o(i.modem_poweron_flow) refers to sim800.o(i.get_CSQ) for get_CSQ
    sim800.o(i.modem_poweron_flow) refers to sim800.o(i.get_gsm_status) for get_gsm_status
    sim800.o(i.modem_poweron_flow) refers to sim800.o(i.GetModemState) for GetModemState
    sim800.o(i.modem_poweron_flow) refers to sim800.o(i.atcmd_get_ack_section) for atcmd_get_ack_section
    sim800.o(i.modem_poweron_flow) refers to strcmp.o(.text) for strcmp
    sim800.o(i.modem_poweron_flow) refers to sim800.o(.data) for task_t_mark
    sim800.o(i.modem_poweron_flow) refers to system.o(.data) for g_BatteryVoltage
    sim800.o(i.modem_poweron_flow) refers to uart3.o(.bss) for gprs_rx_buffer
    sim800.o(i.printf_strbf) refers to printfa.o(i.__0printf) for __2printf
    sim800.o(i.send_atcmd) refers to uart3.o(i.uart3_clr) for uart3_clr
    sim800.o(i.send_atcmd) refers to uart3.o(i.uart3_sendbf) for uart3_sendbf
    sim800.o(i.send_atcmd) refers to strcpy.o(.text) for strcpy
    sim800.o(i.send_atcmd) refers to strcat.o(.text) for strcat
    sim800.o(i.send_atcmd) refers to uart3.o(i.uart3_printf) for uart3_printf
    sim800.o(i.send_atcmd) refers to sim800.o(i.atcmd_wait_respond) for atcmd_wait_respond
    sim800.o(i.send_atcmd) refers to printfa.o(i.__0printf) for __2printf
    sim800.o(i.send_atcmd) refers to sim800.o(i.atcmd_ack_is) for atcmd_ack_is
    sim800.o(i.send_atcmd) refers to uart3.o(.bss) for gprs_rx_buffer
    sim800.o(i.socket_open) refers to sim800.o(i.get_cipstatus) for get_cipstatus
    sim800.o(i.socket_open) refers to sim800.o(i.send_atcmd) for send_atcmd
    sim800.o(i.socket_open) refers to printfa.o(i.__0printf) for __2printf
    sim800.o(i.socket_open) refers to sim800.o(.bss) for winsocket_server_open_cmd
    sim800.o(i.socket_query) refers to sim800.o(i.send_atcmd) for send_atcmd
    sim800.o(i.socket_query) refers to sim800.o(i.atcmd_get_ack_section) for atcmd_get_ack_section
    sim800.o(i.socket_query) refers to printfa.o(i.__0printf) for __2printf
    sim800.o(i.socket_query) refers to my_string.o(i.DecStr2Int) for DecStr2Int
    sim800.o(i.socket_query) refers to sim800.o(i.printf_strbf) for printf_strbf
    sim800.o(i.socket_query) refers to uart3.o(.bss) for gprs_rx_buffer
    sim800.o(i.socket_send) refers to printfa.o(i.__0sprintf) for __2sprintf
    sim800.o(i.socket_send) refers to sim800.o(i.send_atcmd) for send_atcmd
    sim800.o(i.socket_send) refers to systick.o(i.delay_nus) for delay_nus
    sim800.o(i.socket_send) refers to uart3.o(i.uart3_clr) for uart3_clr
    sim800.o(i.socket_send) refers to uart3.o(i.uart3_sendbf) for uart3_sendbf
    sim800.o(i.socket_send) refers to printfa.o(i.__0printf) for __2printf
    sim800.o(i.socket_send) refers to sim800.o(.bss) for winsocket
    sim800.o(i.test_modem) refers to sim800.o(i.send_atcmd) for send_atcmd
    sim800.o(i.test_modem) refers to systick.o(i.Wait10Ms) for Wait10Ms
    sim800.o(i.test_modem) refers to sim800.o(.data) for gModemState
    yeelink.o(i.gpspos_to_yeelinktype) refers to strcpy.o(.text) for strcpy
    yeelink.o(i.gpspos_to_yeelinktype) refers to printfa.o(i.__0sprintf) for __2sprintf
    yeelink.o(i.iPos_clr) refers to yeelink.o(.bss) for iPos
    yeelink.o(i.iPos_get_num) refers to yeelink.o(.bss) for iPos
    yeelink.o(i.yeelink_http_init) refers to yeelink.o(.bss) for yeelink_http_buffer
    yeelink.o(i.yeelink_task) refers to printfa.o(i.__0printf) for __2printf
    yeelink.o(i.yeelink_task) refers to memcpya.o(.text) for __aeabi_memcpy4
    yeelink.o(i.yeelink_task) refers to yeelink.o(i.iPos_get_num) for iPos_get_num
    yeelink.o(i.yeelink_task) refers to sim800.o(i.WinSocketGetState) for WinSocketGetState
    yeelink.o(i.yeelink_task) refers to sim800.o(i.WinSocketClrState) for WinSocketClrState
    yeelink.o(i.yeelink_task) refers to systick.o(i.GetSysTick_Sec) for GetSysTick_Sec
    yeelink.o(i.yeelink_task) refers to sim800.o(i.GetModemState) for GetModemState
    yeelink.o(i.yeelink_task) refers to yeelink.o(i.gpspos_to_yeelinktype) for gpspos_to_yeelinktype
    yeelink.o(i.yeelink_task) refers to strcat.o(.text) for strcat
    yeelink.o(i.yeelink_task) refers to strlen.o(.text) for strlen
    yeelink.o(i.yeelink_task) refers to sim800.o(i.WinSocketSend) for WinSocketSend
    yeelink.o(i.yeelink_task) refers to let_us_go.o(.bss) for g_NewPosition
    yeelink.o(i.yeelink_task) refers to yeelink.o(.bss) for iPos
    yeelink.o(i.yeelink_task) refers to system.o(.bss) for g_SysCfg
    yeelink.o(i.yeelink_task) refers to yeelink.o(.data) for g_YeelinkNextTime
    yeelink.o(i.yeelink_taskinit) refers to yeelink.o(i.iPos_clr) for iPos_clr
    yeelink.o(i.yeelink_taskinit) refers to sim800.o(i.WinSocketInit) for WinSocketInit
    yeelink.o(i.yeelink_taskinit) refers to yeelink.o(.bss) for iPos
    yeelink.o(i.yeelink_taskinit) refers to yeelink.o(.data) for g_YeelinkNextTime
    gsensor.o(i.EXTI0_IRQHandler) refers to stm32f10x_exti.o(i.EXTI_GetITStatus) for EXTI_GetITStatus
    gsensor.o(i.EXTI0_IRQHandler) refers to systick.o(i.GetSysTick_Sec) for GetSysTick_Sec
    gsensor.o(i.EXTI0_IRQHandler) refers to stm32f10x_exti.o(i.EXTI_ClearFlag) for EXTI_ClearFlag
    gsensor.o(i.EXTI0_IRQHandler) refers to gsensor.o(.data) for last_shock_mark_t
    gsensor.o(i.EXTI_Configuration) refers to stm32f10x_exti.o(i.EXTI_Init) for EXTI_Init
    gsensor.o(i.EXTI_Configuration) refers to stm32f10x_gpio.o(i.GPIO_EXTILineConfig) for GPIO_EXTILineConfig
    gsensor.o(i.GPIO_Configuration) refers to stm32f10x_gpio.o(i.GPIO_Init) for GPIO_Init
    gsensor.o(i.MBA220_INT) refers to stm32f10x_gpio.o(i.GPIO_ReadInputDataBit) for GPIO_ReadInputDataBit
    gsensor.o(i.MBA220init) refers to sof_iic.o(i.I2C_Configuration) for I2C_Configuration
    gsensor.o(i.MBA220init) refers to sof_iic.o(i.I2C_WriteByte) for I2C_WriteByte
    gsensor.o(i.MBA220init) refers to systick.o(i.Wait10Ms) for Wait10Ms
    gsensor.o(i.MBA220init) refers to gsensor.o(i.GPIO_Configuration) for GPIO_Configuration
    gsensor.o(i.MBA220init) refers to gsensor.o(i.EXTI_Configuration) for EXTI_Configuration
    gsensor.o(i.MBA220init) refers to gsensor.o(i.NVIC_Configuration) for NVIC_Configuration
    gsensor.o(i.MBA220init) refers to sof_iic.o(i.I2C_ReadByte) for I2C_ReadByte
    gsensor.o(i.NVIC_Configuration) refers to misc.o(i.NVIC_Init) for NVIC_Init
    gsensor.o(i.gSensor_taskinit) refers to systick.o(i.GetSysTick_Sec) for GetSysTick_Sec
    gsensor.o(i.gSensor_taskinit) refers to gsensor.o(i.set_gsensor_ctrl) for set_gsensor_ctrl
    gsensor.o(i.gSensor_taskinit) refers to gsensor.o(.data) for gsensor_task_t_sec
    gsensor.o(i.get_gsensor_state) refers to gsensor.o(.bss) for g_gsensor_info
    gsensor.o(i.gsensor_task) refers to systick.o(i.GetSysTick_Sec) for GetSysTick_Sec
    gsensor.o(i.gsensor_task) refers to gsensor.o(.data) for gsensor_task_t_sec
    gsensor.o(i.gsensor_task) refers to gsensor.o(.bss) for g_gsensor_info
    gsensor.o(i.set_gsensor_ctrl) refers to sof_iic.o(i.I2C_WriteByte) for I2C_WriteByte
    gsensor.o(i.set_gsensor_ctrl) refers to systick.o(i.GetSysTick_Sec) for GetSysTick_Sec
    gsensor.o(i.set_gsensor_ctrl) refers to gsensor.o(.bss) for g_gsensor_info
    sof_iic.o(i.I2C_Ack) refers to sof_iic.o(i.I2C_delay) for I2C_delay
    sof_iic.o(i.I2C_Ack) refers to sof_iic.o(i.I2C_SDA_OUT) for I2C_SDA_OUT
    sof_iic.o(i.I2C_Configuration) refers to stm32f10x_rcc.o(i.RCC_APB2PeriphClockCmd) for RCC_APB2PeriphClockCmd
    sof_iic.o(i.I2C_Configuration) refers to stm32f10x_gpio.o(i.GPIO_Init) for GPIO_Init
    sof_iic.o(i.I2C_NoAck) refers to sof_iic.o(i.I2C_delay) for I2C_delay
    sof_iic.o(i.I2C_NoAck) refers to sof_iic.o(i.I2C_SDA_OUT) for I2C_SDA_OUT
    sof_iic.o(i.I2C_ReadByte) refers to sof_iic.o(i.I2C_Start) for I2C_Start
    sof_iic.o(i.I2C_ReadByte) refers to sof_iic.o(i.I2C_SendByte) for I2C_SendByte
    sof_iic.o(i.I2C_ReadByte) refers to sof_iic.o(i.I2C_WaitAck) for I2C_WaitAck
    sof_iic.o(i.I2C_ReadByte) refers to sof_iic.o(i.I2C_Stop) for I2C_Stop
    sof_iic.o(i.I2C_ReadByte) refers to sof_iic.o(i.I2C_ReceiveByte) for I2C_ReceiveByte
    sof_iic.o(i.I2C_ReadByte) refers to sof_iic.o(i.I2C_NoAck) for I2C_NoAck
    sof_iic.o(i.I2C_ReadByte) refers to sof_iic.o(i.I2C_Ack) for I2C_Ack
    sof_iic.o(i.I2C_ReceiveByte) refers to sof_iic.o(i.I2C_SDA_OUT) for I2C_SDA_OUT
    sof_iic.o(i.I2C_ReceiveByte) refers to sof_iic.o(i.I2C_delay) for I2C_delay
    sof_iic.o(i.I2C_ReceiveByte) refers to sof_iic.o(i.I2C_SDA_IN) for I2C_SDA_IN
    sof_iic.o(i.I2C_SDA_IN) refers to stm32f10x_gpio.o(i.GPIO_Init) for GPIO_Init
    sof_iic.o(i.I2C_SDA_OUT) refers to stm32f10x_gpio.o(i.GPIO_Init) for GPIO_Init
    sof_iic.o(i.I2C_SendByte) refers to sof_iic.o(i.I2C_SDA_OUT) for I2C_SDA_OUT
    sof_iic.o(i.I2C_SendByte) refers to sof_iic.o(i.I2C_delay) for I2C_delay
    sof_iic.o(i.I2C_Start) refers to sof_iic.o(i.I2C_SDA_OUT) for I2C_SDA_OUT
    sof_iic.o(i.I2C_Start) refers to sof_iic.o(i.I2C_delay) for I2C_delay
    sof_iic.o(i.I2C_Stop) refers to sof_iic.o(i.I2C_SDA_OUT) for I2C_SDA_OUT
    sof_iic.o(i.I2C_Stop) refers to sof_iic.o(i.I2C_delay) for I2C_delay
    sof_iic.o(i.I2C_WaitAck) refers to sof_iic.o(i.I2C_SDA_OUT) for I2C_SDA_OUT
    sof_iic.o(i.I2C_WaitAck) refers to sof_iic.o(i.I2C_delay) for I2C_delay
    sof_iic.o(i.I2C_WaitAck) refers to sof_iic.o(i.I2C_SDA_IN) for I2C_SDA_IN
    sof_iic.o(i.I2C_WriteByte) refers to sof_iic.o(i.I2C_Start) for I2C_Start
    sof_iic.o(i.I2C_WriteByte) refers to sof_iic.o(i.I2C_SendByte) for I2C_SendByte
    sof_iic.o(i.I2C_WriteByte) refers to sof_iic.o(i.I2C_WaitAck) for I2C_WaitAck
    sof_iic.o(i.I2C_WriteByte) refers to sof_iic.o(i.I2C_Stop) for I2C_Stop
    gps_algorithm.o(.text) refers to dmul.o(.text) for __aeabi_dmul
    gps_algorithm.o(.text) refers to ddiv.o(.text) for __aeabi_ddiv
    gps_algorithm.o(.text) refers to dadd.o(.text) for __aeabi_dsub
    gps_algorithm.o(.text) refers to sin.o(i.sin) for sin
    gps_algorithm.o(.text) refers to pow.o(i.pow) for pow
    gps_algorithm.o(.text) refers to cos.o(i.cos) for cos
    gps_algorithm.o(.text) refers to sqrt.o(i.sqrt) for sqrt
    gps_algorithm.o(.text) refers to d2f.o(.text) for __aeabi_d2f
    gps_algorithm.o(.text) refers to cdcmple.o(.text) for __aeabi_cdcmple
    gps_algorithm.o(.text) refers to cdrcmple.o(.text) for __aeabi_cdrcmple
    gps_algorithm.o(.text) refers to siabs.o(.text) for abs
    gps_algorithm.o(.text) refers to f2d.o(.text) for __aeabi_f2d
    gps_algorithm.o(.text) refers to gps_algorithm.o(.data) for pi
    gpx_record_task.o(.text) refers to ff.o(i.f_printf) for f_printf
    gpx_record_task.o(.text) refers to printfa.o(i.__0printf) for __2printf
    gpx_record_task.o(.text) refers to ff.o(i.f_close) for f_close
    gpx_record_task.o(.text) refers to let_us_go.o(i.now_position_to_xml) for now_position_to_xml
    gpx_record_task.o(.text) refers to datetime.o(i.sys_time) for sys_time
    gpx_record_task.o(.text) refers to printfa.o(i.__0sprintf) for __2sprintf
    gpx_record_task.o(.text) refers to ff.o(i.f_open) for f_open
    gpx_record_task.o(.text) refers to ff.o(i.f_getfree) for f_getfree
    gpx_record_task.o(.text) refers to ff.o(i.f_sync) for f_sync
    gpx_record_task.o(.text) refers to gpx_record_task.o(.bss) for gpx_fp
    gpx_record_task.o(.text) refers to gpx_record_task.o(.data) for gpx_record_state
    gpx_record_task.o(.text) refers to gpx_record_task.o(.constdata) for gpx_file_end
    gpx_record_task.o(.text) refers to ff.o(.data) for fat_fs
    gpx_record_task.o(.text) refers to let_us_go.o(.bss) for iTrack
    gpx_record_task.o(.text) refers to system.o(.data) for gUsbLinked
    atof.o(i.__softfp_atof) refers (Special) to iusefp.o(.text) for __I$use$fp
    atof.o(i.__softfp_atof) refers to errno.o(i.__read_errno) for __read_errno
    atof.o(i.__softfp_atof) refers to strtod.o(.text) for __strtod_int
    atof.o(i.__softfp_atof) refers to errno.o(i.__set_errno) for __set_errno
    atof.o(i.atof) refers (Special) to iusefp.o(.text) for __I$use$fp
    atof.o(i.atof) refers to errno.o(i.__read_errno) for __read_errno
    atof.o(i.atof) refers to strtod.o(.text) for __strtod_int
    atof.o(i.atof) refers to errno.o(i.__set_errno) for __set_errno
    cos.o(i.__softfp_cos) refers (Special) to iusefp.o(.text) for __I$use$fp
    cos.o(i.__softfp_cos) refers to cos.o(i.cos) for cos
    cos.o(i.cos) refers (Special) to iusefp.o(.text) for __I$use$fp
    cos.o(i.cos) refers to errno.o(i.__set_errno) for __set_errno
    cos.o(i.cos) refers to ddiv.o(.text) for __aeabi_ddiv
    cos.o(i.cos) refers to dscalb.o(.text) for scalbn
    cos.o(i.cos) refers to rred.o(i.__ieee754_rem_pio2) for __ieee754_rem_pio2
    cos.o(i.cos) refers to sin_i.o(i.__kernel_sin) for __kernel_sin
    cos.o(i.cos) refers to cos_i.o(i.__kernel_cos) for __kernel_cos
    cos_x.o(i.____softfp_cos$lsc) refers (Special) to iusefp.o(.text) for __I$use$fp
    cos_x.o(i.____softfp_cos$lsc) refers to cos_x.o(i.__cos$lsc) for __cos$lsc
    cos_x.o(i.__cos$lsc) refers (Special) to iusefp.o(.text) for __I$use$fp
    cos_x.o(i.__cos$lsc) refers to errno.o(i.__set_errno) for __set_errno
    cos_x.o(i.__cos$lsc) refers to dscalb.o(.text) for scalbn
    cos_x.o(i.__cos$lsc) refers to rred.o(i.__ieee754_rem_pio2) for __ieee754_rem_pio2
    cos_x.o(i.__cos$lsc) refers to sin_i.o(i.__kernel_sin) for __kernel_sin
    cos_x.o(i.__cos$lsc) refers to cos_i.o(i.__kernel_cos) for __kernel_cos
    pow.o(i.__softfp_pow) refers (Special) to iusefp.o(.text) for __I$use$fp
    pow.o(i.__softfp_pow) refers to pow.o(i.pow) for pow
    pow.o(i.pow) refers (Special) to iusefp.o(.text) for __I$use$fp
    pow.o(i.pow) refers to dadd.o(.text) for __aeabi_dadd
    pow.o(i.pow) refers to errno.o(i.__set_errno) for __set_errno
    pow.o(i.pow) refers to ddiv.o(.text) for __aeabi_ddiv
    pow.o(i.pow) refers to sqrt.o(i.sqrt) for sqrt
    pow.o(i.pow) refers to dmul.o(.text) for __aeabi_dmul
    pow.o(i.pow) refers to dscalb.o(.text) for scalbn
    pow.o(i.pow) refers to dunder.o(i.__mathlib_dbl_underflow) for __mathlib_dbl_underflow
    pow.o(i.pow) refers to qnan.o(.constdata) for __mathlib_zero
    pow.o(i.pow) refers to poly.o(i.__kernel_poly) for __kernel_poly
    pow.o(i.pow) refers to dflti.o(.text) for __aeabi_i2d
    pow.o(i.pow) refers to cdrcmple.o(.text) for __aeabi_cdrcmple
    pow.o(i.pow) refers to pow.o(.constdata) for .constdata
    pow.o(i.pow) refers to fpclassify.o(i.__ARM_fpclassify) for __ARM_fpclassify
    pow.o(.constdata) refers (Special) to iusefp.o(.text) for __I$use$fp
    pow_x.o(i.____softfp_pow$lsc) refers (Special) to iusefp.o(.text) for __I$use$fp
    pow_x.o(i.____softfp_pow$lsc) refers to pow_x.o(i.__pow$lsc) for __pow$lsc
    pow_x.o(i.__pow$lsc) refers (Special) to iusefp.o(.text) for __I$use$fp
    pow_x.o(i.__pow$lsc) refers to dadd.o(.text) for __aeabi_dadd
    pow_x.o(i.__pow$lsc) refers to errno.o(i.__set_errno) for __set_errno
    pow_x.o(i.__pow$lsc) refers to ddiv.o(.text) for __aeabi_ddiv
    pow_x.o(i.__pow$lsc) refers to sqrt.o(i.sqrt) for sqrt
    pow_x.o(i.__pow$lsc) refers to dmul.o(.text) for __aeabi_dmul
    pow_x.o(i.__pow$lsc) refers to dflti.o(.text) for __aeabi_i2d
    pow_x.o(i.__pow$lsc) refers to dscalb.o(.text) for scalbn
    pow_x.o(i.__pow$lsc) refers to qnan.o(.constdata) for __mathlib_zero
    pow_x.o(i.__pow$lsc) refers to pow_x.o(.constdata) for .constdata
    pow_x.o(i.__pow$lsc) refers to poly.o(i.__kernel_poly) for __kernel_poly
    pow_x.o(i.__pow$lsc) refers to cdrcmple.o(.text) for __aeabi_cdrcmple
    pow_x.o(.constdata) refers (Special) to iusefp.o(.text) for __I$use$fp
    sin.o(i.__softfp_sin) refers (Special) to iusefp.o(.text) for __I$use$fp
    sin.o(i.__softfp_sin) refers to sin.o(i.sin) for sin
    sin.o(i.sin) refers (Special) to iusefp.o(.text) for __I$use$fp
    sin.o(i.sin) refers to errno.o(i.__set_errno) for __set_errno
    sin.o(i.sin) refers to ddiv.o(.text) for __aeabi_ddiv
    sin.o(i.sin) refers to dscalb.o(.text) for scalbn
    sin.o(i.sin) refers to rred.o(i.__ieee754_rem_pio2) for __ieee754_rem_pio2
    sin.o(i.sin) refers to cos_i.o(i.__kernel_cos) for __kernel_cos
    sin.o(i.sin) refers to sin_i.o(i.__kernel_sin) for __kernel_sin
    sin_x.o(i.____softfp_sin$lsc) refers (Special) to iusefp.o(.text) for __I$use$fp
    sin_x.o(i.____softfp_sin$lsc) refers to sin_x.o(i.__sin$lsc) for __sin$lsc
    sin_x.o(i.__sin$lsc) refers (Special) to iusefp.o(.text) for __I$use$fp
    sin_x.o(i.__sin$lsc) refers to errno.o(i.__set_errno) for __set_errno
    sin_x.o(i.__sin$lsc) refers to dscalb.o(.text) for scalbn
    sin_x.o(i.__sin$lsc) refers to rred.o(i.__ieee754_rem_pio2) for __ieee754_rem_pio2
    sin_x.o(i.__sin$lsc) refers to cos_i.o(i.__kernel_cos) for __kernel_cos
    sin_x.o(i.__sin$lsc) refers to sin_i.o(i.__kernel_sin) for __kernel_sin
    sqrt.o(i.__softfp_sqrt) refers (Special) to iusefp.o(.text) for __I$use$fp
    sqrt.o(i.__softfp_sqrt) refers to dsqrt.o(.text) for _dsqrt
    sqrt.o(i.__softfp_sqrt) refers to errno.o(i.__set_errno) for __set_errno
    sqrt.o(i.sqrt) refers (Special) to iusefp.o(.text) for __I$use$fp
    sqrt.o(i.sqrt) refers to dsqrt.o(.text) for _dsqrt
    sqrt.o(i.sqrt) refers to errno.o(i.__set_errno) for __set_errno
    sqrt_x.o(i.____softfp_sqrt$lsc) refers (Special) to iusefp.o(.text) for __I$use$fp
    sqrt_x.o(i.____softfp_sqrt$lsc) refers to cdcmple.o(.text) for __aeabi_cdcmple
    sqrt_x.o(i.____softfp_sqrt$lsc) refers to errno.o(i.__set_errno) for __set_errno
    sqrt_x.o(i.____softfp_sqrt$lsc) refers to dsqrt.o(.text) for _dsqrt
    sqrt_x.o(i.__sqrt$lsc) refers (Special) to iusefp.o(.text) for __I$use$fp
    sqrt_x.o(i.__sqrt$lsc) refers to cdcmple.o(.text) for __aeabi_cdcmple
    sqrt_x.o(i.__sqrt$lsc) refers to errno.o(i.__set_errno) for __set_errno
    sqrt_x.o(i.__sqrt$lsc) refers to dsqrt.o(.text) for _dsqrt
    entry.o(.ARM.Collect$$$$00000000) refers (Special) to entry7.o(.ARM.Collect$$$$00000007) for _main_init
    entry.o(.ARM.Collect$$$$00000000) refers (Special) to entry5.o(.ARM.Collect$$$$00000004) for _main_scatterload
    entry.o(.ARM.Collect$$$$00000000) refers (Special) to entry2.o(.ARM.Collect$$$$00000001) for _main_stk
    printfb.o(i.__0fprintf$bare) refers to printfb.o(i._printf_core) for _printf_core
    printfb.o(i.__0fprintf$bare) refers to uart1.o(i.fputc) for fputc
    printfb.o(i.__0printf$bare) refers to printfb.o(i._printf_core) for _printf_core
    printfb.o(i.__0printf$bare) refers to uart1.o(i.fputc) for fputc
    printfb.o(i.__0printf$bare) refers to stdout.o(.data) for __stdout
    printfb.o(i.__0snprintf$bare) refers to printfb.o(i._printf_core) for _printf_core
    printfb.o(i.__0snprintf$bare) refers to printfb.o(i._snputc) for _snputc
    printfb.o(i.__0sprintf$bare) refers to printfb.o(i._printf_core) for _printf_core
    printfb.o(i.__0sprintf$bare) refers to printfb.o(i._sputc) for _sputc
    printfb.o(i.__0vfprintf$bare) refers to printfb.o(i._printf_core) for _printf_core
    printfb.o(i.__0vfprintf$bare) refers to uart1.o(i.fputc) for fputc
    printfb.o(i.__0vprintf$bare) refers to printfb.o(i._printf_core) for _printf_core
    printfb.o(i.__0vprintf$bare) refers to uart1.o(i.fputc) for fputc
    printfb.o(i.__0vprintf$bare) refers to stdout.o(.data) for __stdout
    printfb.o(i.__0vsnprintf$bare) refers to printfb.o(i._printf_core) for _printf_core
    printfb.o(i.__0vsnprintf$bare) refers to printfb.o(i._snputc) for _snputc
    printfb.o(i.__0vsprintf$bare) refers to printfb.o(i._printf_core) for _printf_core
    printfb.o(i.__0vsprintf$bare) refers to printfb.o(i._sputc) for _sputc
    printf0.o(i.__0fprintf$0) refers to printf0.o(i._printf_core) for _printf_core
    printf0.o(i.__0fprintf$0) refers to uart1.o(i.fputc) for fputc
    printf0.o(i.__0printf$0) refers to printf0.o(i._printf_core) for _printf_core
    printf0.o(i.__0printf$0) refers to uart1.o(i.fputc) for fputc
    printf0.o(i.__0printf$0) refers to stdout.o(.data) for __stdout
    printf0.o(i.__0snprintf$0) refers to printf0.o(i._printf_core) for _printf_core
    printf0.o(i.__0snprintf$0) refers to printf0.o(i._snputc) for _snputc
    printf0.o(i.__0sprintf$0) refers to printf0.o(i._printf_core) for _printf_core
    printf0.o(i.__0sprintf$0) refers to printf0.o(i._sputc) for _sputc
    printf0.o(i.__0vfprintf$0) refers to printf0.o(i._printf_core) for _printf_core
    printf0.o(i.__0vfprintf$0) refers to uart1.o(i.fputc) for fputc
    printf0.o(i.__0vprintf$0) refers to printf0.o(i._printf_core) for _printf_core
    printf0.o(i.__0vprintf$0) refers to uart1.o(i.fputc) for fputc
    printf0.o(i.__0vprintf$0) refers to stdout.o(.data) for __stdout
    printf0.o(i.__0vsnprintf$0) refers to printf0.o(i._printf_core) for _printf_core
    printf0.o(i.__0vsnprintf$0) refers to printf0.o(i._snputc) for _snputc
    printf0.o(i.__0vsprintf$0) refers to printf0.o(i._printf_core) for _printf_core
    printf0.o(i.__0vsprintf$0) refers to printf0.o(i._sputc) for _sputc
    printf1.o(i.__0fprintf$1) refers to printf1.o(i._printf_core) for _printf_core
    printf1.o(i.__0fprintf$1) refers to uart1.o(i.fputc) for fputc
    printf1.o(i.__0printf$1) refers to printf1.o(i._printf_core) for _printf_core
    printf1.o(i.__0printf$1) refers to uart1.o(i.fputc) for fputc
    printf1.o(i.__0printf$1) refers to stdout.o(.data) for __stdout
    printf1.o(i.__0snprintf$1) refers to printf1.o(i._printf_core) for _printf_core
    printf1.o(i.__0snprintf$1) refers to printf1.o(i._snputc) for _snputc
    printf1.o(i.__0sprintf$1) refers to printf1.o(i._printf_core) for _printf_core
    printf1.o(i.__0sprintf$1) refers to printf1.o(i._sputc) for _sputc
    printf1.o(i.__0vfprintf$1) refers to printf1.o(i._printf_core) for _printf_core
    printf1.o(i.__0vfprintf$1) refers to uart1.o(i.fputc) for fputc
    printf1.o(i.__0vprintf$1) refers to printf1.o(i._printf_core) for _printf_core
    printf1.o(i.__0vprintf$1) refers to uart1.o(i.fputc) for fputc
    printf1.o(i.__0vprintf$1) refers to stdout.o(.data) for __stdout
    printf1.o(i.__0vsnprintf$1) refers to printf1.o(i._printf_core) for _printf_core
    printf1.o(i.__0vsnprintf$1) refers to printf1.o(i._snputc) for _snputc
    printf1.o(i.__0vsprintf$1) refers to printf1.o(i._printf_core) for _printf_core
    printf1.o(i.__0vsprintf$1) refers to printf1.o(i._sputc) for _sputc
    printf1.o(i._printf_core) refers to uidiv.o(.text) for __aeabi_uidivmod
    printf2.o(i.__0fprintf$2) refers to printf2.o(i._printf_core) for _printf_core
    printf2.o(i.__0fprintf$2) refers to uart1.o(i.fputc) for fputc
    printf2.o(i.__0printf$2) refers to printf2.o(i._printf_core) for _printf_core
    printf2.o(i.__0printf$2) refers to uart1.o(i.fputc) for fputc
    printf2.o(i.__0printf$2) refers to stdout.o(.data) for __stdout
    printf2.o(i.__0snprintf$2) refers to printf2.o(i._printf_core) for _printf_core
    printf2.o(i.__0snprintf$2) refers to printf2.o(i._snputc) for _snputc
    printf2.o(i.__0sprintf$2) refers to printf2.o(i._printf_core) for _printf_core
    printf2.o(i.__0sprintf$2) refers to printf2.o(i._sputc) for _sputc
    printf2.o(i.__0vfprintf$2) refers to printf2.o(i._printf_core) for _printf_core
    printf2.o(i.__0vfprintf$2) refers to uart1.o(i.fputc) for fputc
    printf2.o(i.__0vprintf$2) refers to printf2.o(i._printf_core) for _printf_core
    printf2.o(i.__0vprintf$2) refers to uart1.o(i.fputc) for fputc
    printf2.o(i.__0vprintf$2) refers to stdout.o(.data) for __stdout
    printf2.o(i.__0vsnprintf$2) refers to printf2.o(i._printf_core) for _printf_core
    printf2.o(i.__0vsnprintf$2) refers to printf2.o(i._snputc) for _snputc
    printf2.o(i.__0vsprintf$2) refers to printf2.o(i._printf_core) for _printf_core
    printf2.o(i.__0vsprintf$2) refers to printf2.o(i._sputc) for _sputc
    printf3.o(i.__0fprintf$3) refers to printf3.o(i._printf_core) for _printf_core
    printf3.o(i.__0fprintf$3) refers to uart1.o(i.fputc) for fputc
    printf3.o(i.__0printf$3) refers to printf3.o(i._printf_core) for _printf_core
    printf3.o(i.__0printf$3) refers to uart1.o(i.fputc) for fputc
    printf3.o(i.__0printf$3) refers to stdout.o(.data) for __stdout
    printf3.o(i.__0snprintf$3) refers to printf3.o(i._printf_core) for _printf_core
    printf3.o(i.__0snprintf$3) refers to printf3.o(i._snputc) for _snputc
    printf3.o(i.__0sprintf$3) refers to printf3.o(i._printf_core) for _printf_core
    printf3.o(i.__0sprintf$3) refers to printf3.o(i._sputc) for _sputc
    printf3.o(i.__0vfprintf$3) refers to printf3.o(i._printf_core) for _printf_core
    printf3.o(i.__0vfprintf$3) refers to uart1.o(i.fputc) for fputc
    printf3.o(i.__0vprintf$3) refers to printf3.o(i._printf_core) for _printf_core
    printf3.o(i.__0vprintf$3) refers to uart1.o(i.fputc) for fputc
    printf3.o(i.__0vprintf$3) refers to stdout.o(.data) for __stdout
    printf3.o(i.__0vsnprintf$3) refers to printf3.o(i._printf_core) for _printf_core
    printf3.o(i.__0vsnprintf$3) refers to printf3.o(i._snputc) for _snputc
    printf3.o(i.__0vsprintf$3) refers to printf3.o(i._printf_core) for _printf_core
    printf3.o(i.__0vsprintf$3) refers to printf3.o(i._sputc) for _sputc
    printf3.o(i._printf_core) refers to uidiv.o(.text) for __aeabi_uidivmod
    printf4.o(i.__0fprintf$4) refers to printf4.o(i._printf_core) for _printf_core
    printf4.o(i.__0fprintf$4) refers to uart1.o(i.fputc) for fputc
    printf4.o(i.__0printf$4) refers to printf4.o(i._printf_core) for _printf_core
    printf4.o(i.__0printf$4) refers to uart1.o(i.fputc) for fputc
    printf4.o(i.__0printf$4) refers to stdout.o(.data) for __stdout
    printf4.o(i.__0snprintf$4) refers to printf4.o(i._printf_core) for _printf_core
    printf4.o(i.__0snprintf$4) refers to printf4.o(i._snputc) for _snputc
    printf4.o(i.__0sprintf$4) refers to printf4.o(i._printf_core) for _printf_core
    printf4.o(i.__0sprintf$4) refers to printf4.o(i._sputc) for _sputc
    printf4.o(i.__0vfprintf$4) refers to printf4.o(i._printf_core) for _printf_core
    printf4.o(i.__0vfprintf$4) refers to uart1.o(i.fputc) for fputc
    printf4.o(i.__0vprintf$4) refers to printf4.o(i._printf_core) for _printf_core
    printf4.o(i.__0vprintf$4) refers to uart1.o(i.fputc) for fputc
    printf4.o(i.__0vprintf$4) refers to stdout.o(.data) for __stdout
    printf4.o(i.__0vsnprintf$4) refers to printf4.o(i._printf_core) for _printf_core
    printf4.o(i.__0vsnprintf$4) refers to printf4.o(i._snputc) for _snputc
    printf4.o(i.__0vsprintf$4) refers to printf4.o(i._printf_core) for _printf_core
    printf4.o(i.__0vsprintf$4) refers to printf4.o(i._sputc) for _sputc
    printf4.o(i._printf_core) refers to uldiv.o(.text) for __aeabi_uldivmod
    printf5.o(i.__0fprintf$5) refers to printf5.o(i._printf_core) for _printf_core
    printf5.o(i.__0fprintf$5) refers to uart1.o(i.fputc) for fputc
    printf5.o(i.__0printf$5) refers to printf5.o(i._printf_core) for _printf_core
    printf5.o(i.__0printf$5) refers to uart1.o(i.fputc) for fputc
    printf5.o(i.__0printf$5) refers to stdout.o(.data) for __stdout
    printf5.o(i.__0snprintf$5) refers to printf5.o(i._printf_core) for _printf_core
    printf5.o(i.__0snprintf$5) refers to printf5.o(i._snputc) for _snputc
    printf5.o(i.__0sprintf$5) refers to printf5.o(i._printf_core) for _printf_core
    printf5.o(i.__0sprintf$5) refers to printf5.o(i._sputc) for _sputc
    printf5.o(i.__0vfprintf$5) refers to printf5.o(i._printf_core) for _printf_core
    printf5.o(i.__0vfprintf$5) refers to uart1.o(i.fputc) for fputc
    printf5.o(i.__0vprintf$5) refers to printf5.o(i._printf_core) for _printf_core
    printf5.o(i.__0vprintf$5) refers to uart1.o(i.fputc) for fputc
    printf5.o(i.__0vprintf$5) refers to stdout.o(.data) for __stdout
    printf5.o(i.__0vsnprintf$5) refers to printf5.o(i._printf_core) for _printf_core
    printf5.o(i.__0vsnprintf$5) refers to printf5.o(i._snputc) for _snputc
    printf5.o(i.__0vsprintf$5) refers to printf5.o(i._printf_core) for _printf_core
    printf5.o(i.__0vsprintf$5) refers to printf5.o(i._sputc) for _sputc
    printf5.o(i._printf_core) refers to uldiv.o(.text) for __aeabi_uldivmod
    printf6.o(i.__0fprintf$6) refers to printf6.o(i._printf_core) for _printf_core
    printf6.o(i.__0fprintf$6) refers to uart1.o(i.fputc) for fputc
    printf6.o(i.__0printf$6) refers to printf6.o(i._printf_core) for _printf_core
    printf6.o(i.__0printf$6) refers to uart1.o(i.fputc) for fputc
    printf6.o(i.__0printf$6) refers to stdout.o(.data) for __stdout
    printf6.o(i.__0snprintf$6) refers to printf6.o(i._printf_core) for _printf_core
    printf6.o(i.__0snprintf$6) refers to printf6.o(i._snputc) for _snputc
    printf6.o(i.__0sprintf$6) refers to printf6.o(i._printf_core) for _printf_core
    printf6.o(i.__0sprintf$6) refers to printf6.o(i._sputc) for _sputc
    printf6.o(i.__0vfprintf$6) refers to printf6.o(i._printf_core) for _printf_core
    printf6.o(i.__0vfprintf$6) refers to uart1.o(i.fputc) for fputc
    printf6.o(i.__0vprintf$6) refers to printf6.o(i._printf_core) for _printf_core
    printf6.o(i.__0vprintf$6) refers to uart1.o(i.fputc) for fputc
    printf6.o(i.__0vprintf$6) refers to stdout.o(.data) for __stdout
    printf6.o(i.__0vsnprintf$6) refers to printf6.o(i._printf_core) for _printf_core
    printf6.o(i.__0vsnprintf$6) refers to printf6.o(i._snputc) for _snputc
    printf6.o(i.__0vsprintf$6) refers to printf6.o(i._printf_core) for _printf_core
    printf6.o(i.__0vsprintf$6) refers to printf6.o(i._sputc) for _sputc
    printf6.o(i._printf_core) refers to printf6.o(i._printf_pre_padding) for _printf_pre_padding
    printf6.o(i._printf_core) refers to uidiv.o(.text) for __aeabi_uidivmod
    printf6.o(i._printf_core) refers to printf6.o(i._printf_post_padding) for _printf_post_padding
    printf7.o(i.__0fprintf$7) refers to printf7.o(i._printf_core) for _printf_core
    printf7.o(i.__0fprintf$7) refers to uart1.o(i.fputc) for fputc
    printf7.o(i.__0printf$7) refers to printf7.o(i._printf_core) for _printf_core
    printf7.o(i.__0printf$7) refers to uart1.o(i.fputc) for fputc
    printf7.o(i.__0printf$7) refers to stdout.o(.data) for __stdout
    printf7.o(i.__0snprintf$7) refers to printf7.o(i._printf_core) for _printf_core
    printf7.o(i.__0snprintf$7) refers to printf7.o(i._snputc) for _snputc
    printf7.o(i.__0sprintf$7) refers to printf7.o(i._printf_core) for _printf_core
    printf7.o(i.__0sprintf$7) refers to printf7.o(i._sputc) for _sputc
    printf7.o(i.__0vfprintf$7) refers to printf7.o(i._printf_core) for _printf_core
    printf7.o(i.__0vfprintf$7) refers to uart1.o(i.fputc) for fputc
    printf7.o(i.__0vprintf$7) refers to printf7.o(i._printf_core) for _printf_core
    printf7.o(i.__0vprintf$7) refers to uart1.o(i.fputc) for fputc
    printf7.o(i.__0vprintf$7) refers to stdout.o(.data) for __stdout
    printf7.o(i.__0vsnprintf$7) refers to printf7.o(i._printf_core) for _printf_core
    printf7.o(i.__0vsnprintf$7) refers to printf7.o(i._snputc) for _snputc
    printf7.o(i.__0vsprintf$7) refers to printf7.o(i._printf_core) for _printf_core
    printf7.o(i.__0vsprintf$7) refers to printf7.o(i._sputc) for _sputc
    printf7.o(i._printf_core) refers to printf7.o(i._printf_pre_padding) for _printf_pre_padding
    printf7.o(i._printf_core) refers to uldiv.o(.text) for __aeabi_uldivmod
    printf7.o(i._printf_core) refers to printf7.o(i._printf_post_padding) for _printf_post_padding
    printf8.o(i.__0fprintf$8) refers to printf8.o(i._printf_core) for _printf_core
    printf8.o(i.__0fprintf$8) refers to uart1.o(i.fputc) for fputc
    printf8.o(i.__0printf$8) refers to printf8.o(i._printf_core) for _printf_core
    printf8.o(i.__0printf$8) refers to uart1.o(i.fputc) for fputc
    printf8.o(i.__0printf$8) refers to stdout.o(.data) for __stdout
    printf8.o(i.__0snprintf$8) refers to printf8.o(i._printf_core) for _printf_core
    printf8.o(i.__0snprintf$8) refers to printf8.o(i._snputc) for _snputc
    printf8.o(i.__0sprintf$8) refers to printf8.o(i._printf_core) for _printf_core
    printf8.o(i.__0sprintf$8) refers to printf8.o(i._sputc) for _sputc
    printf8.o(i.__0vfprintf$8) refers to printf8.o(i._printf_core) for _printf_core
    printf8.o(i.__0vfprintf$8) refers to uart1.o(i.fputc) for fputc
    printf8.o(i.__0vprintf$8) refers to printf8.o(i._printf_core) for _printf_core
    printf8.o(i.__0vprintf$8) refers to uart1.o(i.fputc) for fputc
    printf8.o(i.__0vprintf$8) refers to stdout.o(.data) for __stdout
    printf8.o(i.__0vsnprintf$8) refers to printf8.o(i._printf_core) for _printf_core
    printf8.o(i.__0vsnprintf$8) refers to printf8.o(i._snputc) for _snputc
    printf8.o(i.__0vsprintf$8) refers to printf8.o(i._printf_core) for _printf_core
    printf8.o(i.__0vsprintf$8) refers to printf8.o(i._sputc) for _sputc
    printf8.o(i._printf_core) refers to printf8.o(i._printf_pre_padding) for _printf_pre_padding
    printf8.o(i._printf_core) refers to uldiv.o(.text) for __aeabi_uldivmod
    printf8.o(i._printf_core) refers to printf8.o(i._printf_post_padding) for _printf_post_padding
    printfa.o(i.__0fprintf) refers (Special) to iusefp.o(.text) for __I$use$fp
    printfa.o(i.__0fprintf) refers to printfa.o(i._printf_core) for _printf_core
    printfa.o(i.__0fprintf) refers to uart1.o(i.fputc) for fputc
    printfa.o(i.__0printf) refers (Special) to iusefp.o(.text) for __I$use$fp
    printfa.o(i.__0printf) refers to printfa.o(i._printf_core) for _printf_core
    printfa.o(i.__0printf) refers to uart1.o(i.fputc) for fputc
    printfa.o(i.__0printf) refers to stdout.o(.data) for __stdout
    printfa.o(i.__0snprintf) refers (Special) to iusefp.o(.text) for __I$use$fp
    printfa.o(i.__0snprintf) refers to printfa.o(i._printf_core) for _printf_core
    printfa.o(i.__0snprintf) refers to printfa.o(i._snputc) for _snputc
    printfa.o(i.__0sprintf) refers (Special) to iusefp.o(.text) for __I$use$fp
    printfa.o(i.__0sprintf) refers to printfa.o(i._printf_core) for _printf_core
    printfa.o(i.__0sprintf) refers to printfa.o(i._sputc) for _sputc
    printfa.o(i.__0vfprintf) refers (Special) to iusefp.o(.text) for __I$use$fp
    printfa.o(i.__0vfprintf) refers to printfa.o(i._printf_core) for _printf_core
    printfa.o(i.__0vfprintf) refers to uart1.o(i.fputc) for fputc
    printfa.o(i.__0vprintf) refers (Special) to iusefp.o(.text) for __I$use$fp
    printfa.o(i.__0vprintf) refers to printfa.o(i._printf_core) for _printf_core
    printfa.o(i.__0vprintf) refers to uart1.o(i.fputc) for fputc
    printfa.o(i.__0vprintf) refers to stdout.o(.data) for __stdout
    printfa.o(i.__0vsnprintf) refers (Special) to iusefp.o(.text) for __I$use$fp
    printfa.o(i.__0vsnprintf) refers to printfa.o(i._printf_core) for _printf_core
    printfa.o(i.__0vsnprintf) refers to printfa.o(i._snputc) for _snputc
    printfa.o(i.__0vsprintf) refers (Special) to iusefp.o(.text) for __I$use$fp
    printfa.o(i.__0vsprintf) refers to printfa.o(i._printf_core) for _printf_core
    printfa.o(i.__0vsprintf) refers to printfa.o(i._sputc) for _sputc
    printfa.o(i._fp_digits) refers (Special) to iusefp.o(.text) for __I$use$fp
    printfa.o(i._fp_digits) refers to dmul.o(.text) for __aeabi_dmul
    printfa.o(i._fp_digits) refers to ddiv.o(.text) for __aeabi_ddiv
    printfa.o(i._fp_digits) refers to cdrcmple.o(.text) for __aeabi_cdrcmple
    printfa.o(i._fp_digits) refers to dadd.o(.text) for __aeabi_dadd
    printfa.o(i._fp_digits) refers to dfixul.o(.text) for __aeabi_d2ulz
    printfa.o(i._fp_digits) refers to uldiv.o(.text) for __aeabi_uldivmod
    printfa.o(i._printf_core) refers (Special) to iusefp.o(.text) for __I$use$fp
    printfa.o(i._printf_core) refers to printfa.o(i._printf_pre_padding) for _printf_pre_padding
    printfa.o(i._printf_core) refers to uldiv.o(.text) for __aeabi_uldivmod
    printfa.o(i._printf_core) refers to printfa.o(i._printf_post_padding) for _printf_post_padding
    printfa.o(i._printf_core) refers to printfa.o(i._fp_digits) for _fp_digits
    printfa.o(i._printf_core) refers to uidiv.o(.text) for __aeabi_uidivmod
    printfa.o(i._printf_post_padding) refers (Special) to iusefp.o(.text) for __I$use$fp
    printfa.o(i._printf_pre_padding) refers (Special) to iusefp.o(.text) for __I$use$fp
    printfa.o(i._snputc) refers (Special) to iusefp.o(.text) for __I$use$fp
    printfa.o(i._sputc) refers (Special) to iusefp.o(.text) for __I$use$fp
    fmul.o(.text) refers (Special) to iusefp.o(.text) for __I$use$fp
    fdiv.o(.text) refers (Special) to iusefp.o(.text) for __I$use$fp
    fdiv.o(.text) refers to fepilogue.o(.text) for _float_round
    dadd.o(.text) refers (Special) to iusefp.o(.text) for __I$use$fp
    dadd.o(.text) refers to llshl.o(.text) for __aeabi_llsl
    dadd.o(.text) refers to llsshr.o(.text) for __aeabi_lasr
    dadd.o(.text) refers to depilogue.o(.text) for _double_epilogue
    dmul.o(.text) refers (Special) to iusefp.o(.text) for __I$use$fp
    dmul.o(.text) refers to depilogue.o(.text) for _double_epilogue
    ddiv.o(.text) refers (Special) to iusefp.o(.text) for __I$use$fp
    ddiv.o(.text) refers to depilogue.o(.text) for _double_round
    fflti.o(.text) refers (Special) to iusefp.o(.text) for __I$use$fp
    fflti.o(.text) refers to fepilogue.o(.text) for _float_epilogue
    ffltui.o(.text) refers (Special) to iusefp.o(.text) for __I$use$fp
    ffltui.o(.text) refers to fepilogue.o(.text) for _float_epilogue
    ffixi.o(.text) refers (Special) to iusefp.o(.text) for __I$use$fp
    dfixi.o(.text) refers (Special) to iusefp.o(.text) for __I$use$fp
    dfixi.o(.text) refers to llushr.o(.text) for __aeabi_llsr
    f2d.o(.text) refers (Special) to iusefp.o(.text) for __I$use$fp
    cdcmple.o(.text) refers (Special) to iusefp.o(.text) for __I$use$fp
    cdrcmple.o(.text) refers (Special) to iusefp.o(.text) for __I$use$fp
    d2f.o(.text) refers (Special) to iusefp.o(.text) for __I$use$fp
    d2f.o(.text) refers to fepilogue.o(.text) for _float_round
    cfrcmple.o(.text) refers (Special) to iusefp.o(.text) for __I$use$fp
    cos_i.o(i.__kernel_cos) refers (Special) to iusefp.o(.text) for __I$use$fp
    cos_i.o(i.__kernel_cos) refers to dfixi.o(.text) for __aeabi_d2iz
    cos_i.o(i.__kernel_cos) refers to dmul.o(.text) for __aeabi_dmul
    cos_i.o(i.__kernel_cos) refers to poly.o(i.__kernel_poly) for __kernel_poly
    cos_i.o(i.__kernel_cos) refers to dadd.o(.text) for __aeabi_dsub
    cos_i.o(i.__kernel_cos) refers to dscalb.o(.text) for scalbn
    cos_i.o(i.__kernel_cos) refers to cos_i.o(.constdata) for .constdata
    cos_i.o(.constdata) refers (Special) to iusefp.o(.text) for __I$use$fp
    dunder.o(i.__mathlib_dbl_underflow) refers to dscalb.o(.text) for scalbn
    fpclassify.o(i.__ARM_fpclassify) refers (Special) to iusefp.o(.text) for __I$use$fp
    poly.o(i.__kernel_poly) refers (Special) to iusefp.o(.text) for __I$use$fp
    poly.o(i.__kernel_poly) refers to dmul.o(.text) for __aeabi_dmul
    poly.o(i.__kernel_poly) refers to dadd.o(.text) for __aeabi_dadd
    qnan.o(.constdata) refers (Special) to iusefp.o(.text) for __I$use$fp
    rred.o(i.__ieee754_rem_pio2) refers (Special) to iusefp.o(.text) for __I$use$fp
    rred.o(i.__ieee754_rem_pio2) refers to dadd.o(.text) for __aeabi_dsub
    rred.o(i.__ieee754_rem_pio2) refers to dmul.o(.text) for __aeabi_dmul
    rred.o(i.__ieee754_rem_pio2) refers to dfixi.o(.text) for __aeabi_d2iz
    rred.o(i.__ieee754_rem_pio2) refers to dflti.o(.text) for __aeabi_i2d
    rred.o(i.__ieee754_rem_pio2) refers to dfltui.o(.text) for __aeabi_ui2d
    rred.o(i.__ieee754_rem_pio2) refers to dscalb.o(.text) for scalbn
    rred.o(i.__ieee754_rem_pio2) refers to rred.o(.constdata) for .constdata
    rred.o(i.__use_accurate_range_reduction) refers (Special) to iusefp.o(.text) for __I$use$fp
    rred.o(.constdata) refers (Special) to iusefp.o(.text) for __I$use$fp
    sin_i.o(i.__kernel_sin) refers (Special) to iusefp.o(.text) for __I$use$fp
    sin_i.o(i.__kernel_sin) refers to fpclassify.o(i.__ARM_fpclassify) for __ARM_fpclassify
    sin_i.o(i.__kernel_sin) refers to dunder.o(i.__mathlib_dbl_underflow) for __mathlib_dbl_underflow
    sin_i.o(i.__kernel_sin) refers to dmul.o(.text) for __aeabi_dmul
    sin_i.o(i.__kernel_sin) refers to poly.o(i.__kernel_poly) for __kernel_poly
    sin_i.o(i.__kernel_sin) refers to dscalb.o(.text) for scalbn
    sin_i.o(i.__kernel_sin) refers to dadd.o(.text) for __aeabi_dsub
    sin_i.o(i.__kernel_sin) refers to sin_i.o(.constdata) for .constdata
    sin_i.o(.constdata) refers (Special) to iusefp.o(.text) for __I$use$fp
    sin_i_x.o(i.____kernel_sin$lsc) refers (Special) to iusefp.o(.text) for __I$use$fp
    sin_i_x.o(i.____kernel_sin$lsc) refers to dmul.o(.text) for __aeabi_dmul
    sin_i_x.o(i.____kernel_sin$lsc) refers to poly.o(i.__kernel_poly) for __kernel_poly
    sin_i_x.o(i.____kernel_sin$lsc) refers to dscalb.o(.text) for scalbn
    sin_i_x.o(i.____kernel_sin$lsc) refers to dadd.o(.text) for __aeabi_dsub
    sin_i_x.o(i.____kernel_sin$lsc) refers to sin_i_x.o(.constdata) for .constdata
    sin_i_x.o(.constdata) refers (Special) to iusefp.o(.text) for __I$use$fp
    entry2.o(.ARM.Collect$$$$00000001) refers to entry2.o(.ARM.Collect$$$$00002712) for __lit__00000000
    entry2.o(.ARM.Collect$$$$00002712) refers to startup_stm32f10x_hd.o(STACK) for __initial_sp
    entry2.o(__vectab_stack_and_reset_area) refers to startup_stm32f10x_hd.o(STACK) for __initial_sp
    entry2.o(__vectab_stack_and_reset_area) refers to entry.o(.ARM.Collect$$$$00000000) for __main
    entry5.o(.ARM.Collect$$$$00000004) refers to init.o(.text) for __scatterload
    entry7.o(.ARM.Collect$$$$00000007) refers to main.o(i.main) for main
    uldiv.o(.text) refers to llushr.o(.text) for __aeabi_llsr
    uldiv.o(.text) refers to llshl.o(.text) for __aeabi_llsl
    errno.o(i.__aeabi_errno_addr) refers to errno.o(.data) for .data
    errno.o(i.__read_errno) refers to errno.o(.data) for .data
    errno.o(i.__set_errno) refers to errno.o(.data) for .data
    strtod.o(.text) refers to scanf_fp.o(.text) for _scanf_real
    strtod.o(.text) refers to _sgetc.o(.text) for _sgetc
    strtod.o(.text) refers to isspace_c.o(.text) for isspace
    depilogue.o(.text) refers to llshl.o(.text) for __aeabi_llsl
    depilogue.o(.text) refers to llushr.o(.text) for __aeabi_llsr
    dsqrt.o(.text) refers to llushr.o(.text) for __aeabi_llsr
    dsqrt.o(.text) refers to depilogue.o(.text) for _double_round
    dflti.o(.text) refers to depilogue.o(.text) for _double_epilogue
    dfixul.o(.text) refers to llushr.o(.text) for __aeabi_llsr
    dfixul.o(.text) refers to llshl.o(.text) for __aeabi_llsl
    init.o(.text) refers to entry5.o(.ARM.Collect$$$$00000004) for __main_after_scatterload
    isspace_c.o(.text) refers to ctype_c.o(.text) for __ctype_lookup
    scanf_fp.o(.text) refers (Special) to iusefp.o(.text) for __I$use$fp
    scanf_fp.o(.text) refers to dfltul.o(.text) for __aeabi_ul2d
    scanf_fp.o(.text) refers to dmul.o(.text) for __aeabi_dmul
    scanf_fp.o(.text) refers to ddiv.o(.text) for __aeabi_ddiv
    scanf_fp.o(.text) refers to d2f.o(.text) for __aeabi_d2f
    dfltui.o(.text) refers to depilogue.o(.text) for _double_epilogue
    ctype_c.o(.text) refers to ctype_c.o(.constdata) for .constdata
    dfltul.o(.text) refers to depilogue.o(.text) for _double_epilogue


==============================================================================

Removing Unused input sections from the image.

    Removing core_cm3.o(.emb_text), (32 bytes).
    Removing system_stm32f10x.o(i.SystemCoreClockUpdate), (164 bytes).
    Removing hw_config.o(i.Enter_LowPowerMode), (12 bytes).
    Removing hw_config.o(i.Leave_LowPowerMode), (32 bytes).
    Removing hw_config.o(i.Led_Config), (14 bytes).
    Removing hw_config.o(i.Set_System), (12 bytes).
    Removing hw_config.o(i.USB_Configured_LED), (14 bytes).
    Removing hw_config.o(.data), (1 bytes).
    Removing usb_pwr.o(i.PowerOff), (44 bytes).
    Removing usb_pwr.o(i.Resume), (192 bytes).
    Removing usb_pwr.o(i.Resume_Init), (40 bytes).
    Removing usb_pwr.o(i.Suspend), (48 bytes).
    Removing usb_scsi.o(i.SCSI_Valid_Cmd), (52 bytes).
    Removing usb_regs.o(i.ClearEPDoubleBuff), (40 bytes).
    Removing usb_regs.o(i.ClearEP_CTR_RX), (36 bytes).
    Removing usb_regs.o(i.ClearEP_CTR_TX), (36 bytes).
    Removing usb_regs.o(i.ClearEP_KIND), (40 bytes).
    Removing usb_regs.o(i.FreeUserBuffer), (84 bytes).
    Removing usb_regs.o(i.GetBTABLE), (12 bytes).
    Removing usb_regs.o(i.GetCNTR), (12 bytes).
    Removing usb_regs.o(i.GetDADDR), (12 bytes).
    Removing usb_regs.o(i.GetENDPOINT), (20 bytes).
    Removing usb_regs.o(i.GetEPAddress), (24 bytes).
    Removing usb_regs.o(i.GetEPDblBuf0Addr), (32 bytes).
    Removing usb_regs.o(i.GetEPDblBuf0Count), (36 bytes).
    Removing usb_regs.o(i.GetEPDblBuf1Addr), (36 bytes).
    Removing usb_regs.o(i.GetEPDblBuf1Count), (36 bytes).
    Removing usb_regs.o(i.GetEPDblBufDir), (76 bytes).
    Removing usb_regs.o(i.GetEPRxStatus), (24 bytes).
    Removing usb_regs.o(i.GetEPTxCount), (36 bytes).
    Removing usb_regs.o(i.GetEPTxStatus), (24 bytes).
    Removing usb_regs.o(i.GetEPType), (24 bytes).
    Removing usb_regs.o(i.GetFNR), (12 bytes).
    Removing usb_regs.o(i.GetISTR), (12 bytes).
    Removing usb_regs.o(i.GetRxStallStatus), (36 bytes).
    Removing usb_regs.o(i.GetTxStallStatus), (36 bytes).
    Removing usb_regs.o(i.SetCNTR), (12 bytes).
    Removing usb_regs.o(i.SetDADDR), (12 bytes).
    Removing usb_regs.o(i.SetDouBleBuffEPStall), (60 bytes).
    Removing usb_regs.o(i.SetENDPOINT), (16 bytes).
    Removing usb_regs.o(i.SetEPAddress), (44 bytes).
    Removing usb_regs.o(i.SetEPCountRxReg), (48 bytes).
    Removing usb_regs.o(i.SetEPDblBuf0Addr), (32 bytes).
    Removing usb_regs.o(i.SetEPDblBuf0Count), (108 bytes).
    Removing usb_regs.o(i.SetEPDblBuf1Addr), (36 bytes).
    Removing usb_regs.o(i.SetEPDblBuf1Count), (108 bytes).
    Removing usb_regs.o(i.SetEPDblBuffAddr), (64 bytes).
    Removing usb_regs.o(i.SetEPDblBuffCount), (204 bytes).
    Removing usb_regs.o(i.SetEPDoubleBuff), (44 bytes).
    Removing usb_regs.o(i.SetEPTxValid), (52 bytes).
    Removing usb_regs.o(i.SetEP_KIND), (44 bytes).
    Removing usb_regs.o(i.SetISTR), (12 bytes).
    Removing usb_regs.o(i.Set_Status_Out), (44 bytes).
    Removing usb_regs.o(i.ToWord), (8 bytes).
    Removing usb_regs.o(i.ToggleDTOG_RX), (40 bytes).
    Removing usb_regs.o(i.ToggleDTOG_TX), (40 bytes).
    Removing ff.o(i.dir_read), (102 bytes).
    Removing ff.o(i.dir_remove), (44 bytes).
    Removing ff.o(i.f_chmod), (86 bytes).
    Removing ff.o(i.f_create), (354 bytes).
    Removing ff.o(i.f_gets), (72 bytes).
    Removing ff.o(i.f_lseek), (484 bytes).
    Removing ff.o(i.f_mkdir), (324 bytes).
    Removing ff.o(i.f_opendir), (114 bytes).
    Removing ff.o(i.f_readdir), (88 bytes).
    Removing ff.o(i.f_rename), (254 bytes).
    Removing ff.o(i.f_truncate), (158 bytes).
    Removing ff.o(i.f_unlink), (172 bytes).
    Removing ff.o(i.f_utime), (72 bytes).
    Removing uart1.o(i.fgetc), (32 bytes).
    Removing uart2.o(i.uart2_fgetc), (32 bytes).
    Removing uart2.o(i.uart2_fputc), (36 bytes).
    Removing uart3.o(i.uart3_fgetc), (28 bytes).
    Removing uart3.o(i.uart3_get_rxbuf_ptr), (8 bytes).
    Removing uart3.o(i.uart3_read), (40 bytes).
    Removing uart3.o(i.uart3_sendbf_f), (44 bytes).
    Removing uart3.o(i.uart3_sendbf_finished), (20 bytes).
    Removing misc.o(i.NVIC_SetVectorTable), (20 bytes).
    Removing misc.o(i.NVIC_SystemLPConfig), (44 bytes).
    Removing misc.o(i.SysTick_CLKSourceConfig), (40 bytes).
    Removing stm32f10x_dbgmcu.o(i.DBGMCU_Config), (32 bytes).
    Removing stm32f10x_dbgmcu.o(i.DBGMCU_GetDEVID), (16 bytes).
    Removing stm32f10x_dbgmcu.o(i.DBGMCU_GetREVID), (12 bytes).
    Removing stm32f10x_dma.o(i.DMA_ClearFlag), (28 bytes).
    Removing stm32f10x_dma.o(i.DMA_ClearITPendingBit), (28 bytes).
    Removing stm32f10x_dma.o(i.DMA_Cmd), (24 bytes).
    Removing stm32f10x_dma.o(i.DMA_DeInit), (336 bytes).
    Removing stm32f10x_dma.o(i.DMA_GetCurrDataCounter), (8 bytes).
    Removing stm32f10x_dma.o(i.DMA_GetFlagStatus), (44 bytes).
    Removing stm32f10x_dma.o(i.DMA_GetITStatus), (44 bytes).
    Removing stm32f10x_dma.o(i.DMA_ITConfig), (18 bytes).
    Removing stm32f10x_dma.o(i.DMA_Init), (60 bytes).
    Removing stm32f10x_dma.o(i.DMA_SetCurrDataCounter), (4 bytes).
    Removing stm32f10x_dma.o(i.DMA_StructInit), (26 bytes).
    Removing stm32f10x_exti.o(i.EXTI_ClearITPendingBit), (12 bytes).
    Removing stm32f10x_exti.o(i.EXTI_DeInit), (52 bytes).
    Removing stm32f10x_exti.o(i.EXTI_GenerateSWInterrupt), (24 bytes).
    Removing stm32f10x_exti.o(i.EXTI_GetFlagStatus), (24 bytes).
    Removing stm32f10x_exti.o(i.EXTI_StructInit), (16 bytes).
    Removing stm32f10x_flash.o(i.FLASH_ClearFlag), (12 bytes).
    Removing stm32f10x_flash.o(i.FLASH_EnableWriteProtection), (204 bytes).
    Removing stm32f10x_flash.o(i.FLASH_EraseAllBank1Pages), (72 bytes).
    Removing stm32f10x_flash.o(i.FLASH_EraseAllPages), (72 bytes).
    Removing stm32f10x_flash.o(i.FLASH_EraseOptionBytes), (168 bytes).
    Removing stm32f10x_flash.o(i.FLASH_GetFlagStatus), (48 bytes).
    Removing stm32f10x_flash.o(i.FLASH_GetPrefetchBufferStatus), (24 bytes).
    Removing stm32f10x_flash.o(i.FLASH_GetReadOutProtectionStatus), (24 bytes).
    Removing stm32f10x_flash.o(i.FLASH_GetStatus), (56 bytes).
    Removing stm32f10x_flash.o(i.FLASH_GetUserOptionByte), (12 bytes).
    Removing stm32f10x_flash.o(i.FLASH_GetWriteProtectionOptionByte), (12 bytes).
    Removing stm32f10x_flash.o(i.FLASH_HalfCycleAccessCmd), (28 bytes).
    Removing stm32f10x_flash.o(i.FLASH_ITConfig), (32 bytes).
    Removing stm32f10x_flash.o(i.FLASH_LockBank1), (20 bytes).
    Removing stm32f10x_flash.o(i.FLASH_PrefetchBufferCmd), (28 bytes).
    Removing stm32f10x_flash.o(i.FLASH_ProgramHalfWord), (64 bytes).
    Removing stm32f10x_flash.o(i.FLASH_ProgramOptionByteData), (84 bytes).
    Removing stm32f10x_flash.o(i.FLASH_ReadOutProtection), (172 bytes).
    Removing stm32f10x_flash.o(i.FLASH_SetLatency), (24 bytes).
    Removing stm32f10x_flash.o(i.FLASH_UnlockBank1), (24 bytes).
    Removing stm32f10x_flash.o(i.FLASH_UserOptionByteConfig), (104 bytes).
    Removing stm32f10x_flash.o(i.FLASH_WaitForLastBank1Operation), (38 bytes).
    Removing stm32f10x_fsmc.o(i.FSMC_ClearFlag), (72 bytes).
    Removing stm32f10x_fsmc.o(i.FSMC_ClearITPendingBit), (72 bytes).
    Removing stm32f10x_fsmc.o(i.FSMC_GetECC), (28 bytes).
    Removing stm32f10x_fsmc.o(i.FSMC_GetFlagStatus), (56 bytes).
    Removing stm32f10x_fsmc.o(i.FSMC_GetITStatus), (68 bytes).
    Removing stm32f10x_fsmc.o(i.FSMC_ITConfig), (136 bytes).
    Removing stm32f10x_fsmc.o(i.FSMC_NANDCmd), (92 bytes).
    Removing stm32f10x_fsmc.o(i.FSMC_NANDDeInit), (72 bytes).
    Removing stm32f10x_fsmc.o(i.FSMC_NANDECCCmd), (92 bytes).
    Removing stm32f10x_fsmc.o(i.FSMC_NANDInit), (140 bytes).
    Removing stm32f10x_fsmc.o(i.FSMC_NANDStructInit), (54 bytes).
    Removing stm32f10x_fsmc.o(i.FSMC_NORSRAMCmd), (52 bytes).
    Removing stm32f10x_fsmc.o(i.FSMC_NORSRAMDeInit), (56 bytes).
    Removing stm32f10x_fsmc.o(i.FSMC_NORSRAMInit), (224 bytes).
    Removing stm32f10x_fsmc.o(i.FSMC_NORSRAMStructInit), (114 bytes).
    Removing stm32f10x_fsmc.o(i.FSMC_PCCARDCmd), (48 bytes).
    Removing stm32f10x_fsmc.o(i.FSMC_PCCARDDeInit), (48 bytes).
    Removing stm32f10x_fsmc.o(i.FSMC_PCCARDInit), (136 bytes).
    Removing stm32f10x_fsmc.o(i.FSMC_PCCARDStructInit), (60 bytes).
    Removing stm32f10x_gpio.o(i.GPIO_AFIODeInit), (20 bytes).
    Removing stm32f10x_gpio.o(i.GPIO_DeInit), (200 bytes).
    Removing stm32f10x_gpio.o(i.GPIO_ETH_MediaInterfaceConfig), (12 bytes).
    Removing stm32f10x_gpio.o(i.GPIO_EventOutputCmd), (12 bytes).
    Removing stm32f10x_gpio.o(i.GPIO_EventOutputConfig), (32 bytes).
    Removing stm32f10x_gpio.o(i.GPIO_PinLockConfig), (18 bytes).
    Removing stm32f10x_gpio.o(i.GPIO_PinRemapConfig), (144 bytes).
    Removing stm32f10x_gpio.o(i.GPIO_ReadInputData), (8 bytes).
    Removing stm32f10x_gpio.o(i.GPIO_ReadOutputData), (8 bytes).
    Removing stm32f10x_gpio.o(i.GPIO_ReadOutputDataBit), (18 bytes).
    Removing stm32f10x_gpio.o(i.GPIO_StructInit), (16 bytes).
    Removing stm32f10x_gpio.o(i.GPIO_Write), (4 bytes).
    Removing stm32f10x_gpio.o(i.GPIO_WriteBit), (10 bytes).
    Removing stm32f10x_iwdg.o(i.IWDG_GetFlagStatus), (24 bytes).
    Removing stm32f10x_pwr.o(i.PWR_BackupAccessCmd), (12 bytes).
    Removing stm32f10x_pwr.o(i.PWR_ClearFlag), (20 bytes).
    Removing stm32f10x_pwr.o(i.PWR_DeInit), (22 bytes).
    Removing stm32f10x_pwr.o(i.PWR_EnterSTANDBYMode), (56 bytes).
    Removing stm32f10x_pwr.o(i.PWR_GetFlagStatus), (24 bytes).
    Removing stm32f10x_pwr.o(i.PWR_PVDCmd), (12 bytes).
    Removing stm32f10x_pwr.o(i.PWR_PVDLevelConfig), (24 bytes).
    Removing stm32f10x_pwr.o(i.PWR_WakeUpPinCmd), (12 bytes).
    Removing stm32f10x_rcc.o(i.RCC_ADCCLKConfig), (24 bytes).
    Removing stm32f10x_rcc.o(i.RCC_AHBPeriphClockCmd), (32 bytes).
    Removing stm32f10x_rcc.o(i.RCC_AdjustHSICalibrationValue), (24 bytes).
    Removing stm32f10x_rcc.o(i.RCC_BackupResetCmd), (12 bytes).
    Removing stm32f10x_rcc.o(i.RCC_ClearITPendingBit), (12 bytes).
    Removing stm32f10x_rcc.o(i.RCC_ClockSecuritySystemCmd), (12 bytes).
    Removing stm32f10x_rcc.o(i.RCC_DeInit), (76 bytes).
    Removing stm32f10x_rcc.o(i.RCC_GetITStatus), (24 bytes).
    Removing stm32f10x_rcc.o(i.RCC_GetSYSCLKSource), (16 bytes).
    Removing stm32f10x_rcc.o(i.RCC_HCLKConfig), (24 bytes).
    Removing stm32f10x_rcc.o(i.RCC_HSEConfig), (76 bytes).
    Removing stm32f10x_rcc.o(i.RCC_HSICmd), (12 bytes).
    Removing stm32f10x_rcc.o(i.RCC_ITConfig), (36 bytes).
    Removing stm32f10x_rcc.o(i.RCC_LSEConfig), (52 bytes).
    Removing stm32f10x_rcc.o(i.RCC_LSICmd), (12 bytes).
    Removing stm32f10x_rcc.o(i.RCC_MCOConfig), (12 bytes).
    Removing stm32f10x_rcc.o(i.RCC_PCLK1Config), (24 bytes).
    Removing stm32f10x_rcc.o(i.RCC_PCLK2Config), (24 bytes).
    Removing stm32f10x_rcc.o(i.RCC_PLLCmd), (12 bytes).
    Removing stm32f10x_rcc.o(i.RCC_PLLConfig), (28 bytes).
    Removing stm32f10x_rcc.o(i.RCC_RTCCLKCmd), (12 bytes).
    Removing stm32f10x_rcc.o(i.RCC_RTCCLKConfig), (16 bytes).
    Removing stm32f10x_rcc.o(i.RCC_SYSCLKConfig), (24 bytes).
    Removing stm32f10x_rcc.o(i.RCC_WaitForHSEStartUp), (48 bytes).
    Removing stm32f10x_sdio.o(i.SDIO_CEATAITCmd), (16 bytes).
    Removing stm32f10x_sdio.o(i.SDIO_ClearFlag), (12 bytes).
    Removing stm32f10x_sdio.o(i.SDIO_ClearITPendingBit), (12 bytes).
    Removing stm32f10x_sdio.o(i.SDIO_ClockCmd), (12 bytes).
    Removing stm32f10x_sdio.o(i.SDIO_CmdStructInit), (14 bytes).
    Removing stm32f10x_sdio.o(i.SDIO_CommandCompletionCmd), (12 bytes).
    Removing stm32f10x_sdio.o(i.SDIO_DMACmd), (12 bytes).
    Removing stm32f10x_sdio.o(i.SDIO_DataConfig), (48 bytes).
    Removing stm32f10x_sdio.o(i.SDIO_DataStructInit), (20 bytes).
    Removing stm32f10x_sdio.o(i.SDIO_DeInit), (36 bytes).
    Removing stm32f10x_sdio.o(i.SDIO_GetCommandResponse), (12 bytes).
    Removing stm32f10x_sdio.o(i.SDIO_GetDataCounter), (12 bytes).
    Removing stm32f10x_sdio.o(i.SDIO_GetFIFOCount), (12 bytes).
    Removing stm32f10x_sdio.o(i.SDIO_GetFlagStatus), (24 bytes).
    Removing stm32f10x_sdio.o(i.SDIO_GetITStatus), (24 bytes).
    Removing stm32f10x_sdio.o(i.SDIO_GetPowerState), (16 bytes).
    Removing stm32f10x_sdio.o(i.SDIO_GetResponse), (16 bytes).
    Removing stm32f10x_sdio.o(i.SDIO_ITConfig), (32 bytes).
    Removing stm32f10x_sdio.o(i.SDIO_Init), (48 bytes).
    Removing stm32f10x_sdio.o(i.SDIO_ReadData), (12 bytes).
    Removing stm32f10x_sdio.o(i.SDIO_SendCEATACmd), (12 bytes).
    Removing stm32f10x_sdio.o(i.SDIO_SendCommand), (44 bytes).
    Removing stm32f10x_sdio.o(i.SDIO_SendSDIOSuspendCmd), (12 bytes).
    Removing stm32f10x_sdio.o(i.SDIO_SetPowerState), (28 bytes).
    Removing stm32f10x_sdio.o(i.SDIO_SetSDIOOperation), (12 bytes).
    Removing stm32f10x_sdio.o(i.SDIO_SetSDIOReadWaitMode), (12 bytes).
    Removing stm32f10x_sdio.o(i.SDIO_StartSDIOReadWait), (12 bytes).
    Removing stm32f10x_sdio.o(i.SDIO_StopSDIOReadWait), (12 bytes).
    Removing stm32f10x_sdio.o(i.SDIO_StructInit), (16 bytes).
    Removing stm32f10x_sdio.o(i.SDIO_WriteData), (12 bytes).
    Removing stm32f10x_spi.o(i.I2S_Cmd), (24 bytes).
    Removing stm32f10x_spi.o(i.I2S_Init), (228 bytes).
    Removing stm32f10x_spi.o(i.I2S_StructInit), (20 bytes).
    Removing stm32f10x_spi.o(i.SPI_BiDirectionalLineConfig), (28 bytes).
    Removing stm32f10x_spi.o(i.SPI_DataSizeConfig), (18 bytes).
    Removing stm32f10x_spi.o(i.SPI_GetCRC), (16 bytes).
    Removing stm32f10x_spi.o(i.SPI_GetCRCPolynomial), (6 bytes).
    Removing stm32f10x_spi.o(i.SPI_I2S_ClearFlag), (6 bytes).
    Removing stm32f10x_spi.o(i.SPI_I2S_ClearITPendingBit), (20 bytes).
    Removing stm32f10x_spi.o(i.SPI_I2S_DMACmd), (24 bytes).
    Removing stm32f10x_spi.o(i.SPI_I2S_GetITStatus), (52 bytes).
    Removing stm32f10x_spi.o(i.SPI_I2S_ITConfig), (36 bytes).
    Removing stm32f10x_spi.o(i.SPI_NSSInternalSoftwareConfig), (30 bytes).
    Removing stm32f10x_spi.o(i.SPI_SSOutputCmd), (24 bytes).
    Removing stm32f10x_spi.o(i.SPI_StructInit), (24 bytes).
    Removing stm32f10x_spi.o(i.SPI_TransmitCRC), (10 bytes).
    Removing stm32f10x_tim.o(i.TI1_Config), (128 bytes).
    Removing stm32f10x_tim.o(i.TI2_Config), (140 bytes).
    Removing stm32f10x_tim.o(i.TI3_Config), (136 bytes).
    Removing stm32f10x_tim.o(i.TI4_Config), (140 bytes).
    Removing stm32f10x_tim.o(i.TIM_ARRPreloadConfig), (24 bytes).
    Removing stm32f10x_tim.o(i.TIM_BDTRConfig), (32 bytes).
    Removing stm32f10x_tim.o(i.TIM_BDTRStructInit), (18 bytes).
    Removing stm32f10x_tim.o(i.TIM_CCPreloadControl), (24 bytes).
    Removing stm32f10x_tim.o(i.TIM_CCxCmd), (34 bytes).
    Removing stm32f10x_tim.o(i.TIM_CCxNCmd), (34 bytes).
    Removing stm32f10x_tim.o(i.TIM_ClearFlag), (6 bytes).
    Removing stm32f10x_tim.o(i.TIM_ClearITPendingBit), (6 bytes).
    Removing stm32f10x_tim.o(i.TIM_ClearOC1Ref), (18 bytes).
    Removing stm32f10x_tim.o(i.TIM_ClearOC2Ref), (20 bytes).
    Removing stm32f10x_tim.o(i.TIM_ClearOC3Ref), (18 bytes).
    Removing stm32f10x_tim.o(i.TIM_ClearOC4Ref), (20 bytes).
    Removing stm32f10x_tim.o(i.TIM_Cmd), (24 bytes).
    Removing stm32f10x_tim.o(i.TIM_CounterModeConfig), (18 bytes).
    Removing stm32f10x_tim.o(i.TIM_CtrlPWMOutputs), (30 bytes).
    Removing stm32f10x_tim.o(i.TIM_DMACmd), (24 bytes).
    Removing stm32f10x_tim.o(i.TIM_DMAConfig), (10 bytes).
    Removing stm32f10x_tim.o(i.TIM_DeInit), (488 bytes).
    Removing stm32f10x_tim.o(i.TIM_ETRClockMode1Config), (54 bytes).
    Removing stm32f10x_tim.o(i.TIM_ETRClockMode2Config), (32 bytes).
    Removing stm32f10x_tim.o(i.TIM_ETRConfig), (24 bytes).
    Removing stm32f10x_tim.o(i.TIM_EncoderInterfaceConfig), (62 bytes).
    Removing stm32f10x_tim.o(i.TIM_ForcedOC1Config), (18 bytes).
    Removing stm32f10x_tim.o(i.TIM_ForcedOC2Config), (22 bytes).
    Removing stm32f10x_tim.o(i.TIM_ForcedOC3Config), (18 bytes).
    Removing stm32f10x_tim.o(i.TIM_ForcedOC4Config), (22 bytes).
    Removing stm32f10x_tim.o(i.TIM_GenerateEvent), (4 bytes).
    Removing stm32f10x_tim.o(i.TIM_GetCapture1), (6 bytes).
    Removing stm32f10x_tim.o(i.TIM_GetCapture2), (6 bytes).
    Removing stm32f10x_tim.o(i.TIM_GetCapture3), (6 bytes).
    Removing stm32f10x_tim.o(i.TIM_GetCapture4), (8 bytes).
    Removing stm32f10x_tim.o(i.TIM_GetCounter), (6 bytes).
    Removing stm32f10x_tim.o(i.TIM_GetFlagStatus), (18 bytes).
    Removing stm32f10x_tim.o(i.TIM_GetITStatus), (34 bytes).
    Removing stm32f10x_tim.o(i.TIM_GetPrescaler), (6 bytes).
    Removing stm32f10x_tim.o(i.TIM_ICInit), (172 bytes).
    Removing stm32f10x_tim.o(i.TIM_ICStructInit), (18 bytes).
    Removing stm32f10x_tim.o(i.TIM_ITConfig), (24 bytes).
    Removing stm32f10x_tim.o(i.TIM_ITRxExternalClockConfig), (24 bytes).
    Removing stm32f10x_tim.o(i.TIM_InternalClockConfig), (12 bytes).
    Removing stm32f10x_tim.o(i.TIM_OC1FastConfig), (18 bytes).
    Removing stm32f10x_tim.o(i.TIM_OC1Init), (152 bytes).
    Removing stm32f10x_tim.o(i.TIM_OC1NPolarityConfig), (18 bytes).
    Removing stm32f10x_tim.o(i.TIM_OC1PolarityConfig), (18 bytes).
    Removing stm32f10x_tim.o(i.TIM_OC1PreloadConfig), (18 bytes).
    Removing stm32f10x_tim.o(i.TIM_OC2FastConfig), (22 bytes).
    Removing stm32f10x_tim.o(i.TIM_OC2Init), (156 bytes).
    Removing stm32f10x_tim.o(i.TIM_OC2NPolarityConfig), (22 bytes).
    Removing stm32f10x_tim.o(i.TIM_OC2PolarityConfig), (22 bytes).
    Removing stm32f10x_tim.o(i.TIM_OC2PreloadConfig), (22 bytes).
    Removing stm32f10x_tim.o(i.TIM_OC3FastConfig), (18 bytes).
    Removing stm32f10x_tim.o(i.TIM_OC3Init), (152 bytes).
    Removing stm32f10x_tim.o(i.TIM_OC3NPolarityConfig), (22 bytes).
    Removing stm32f10x_tim.o(i.TIM_OC3PolarityConfig), (22 bytes).
    Removing stm32f10x_tim.o(i.TIM_OC3PreloadConfig), (18 bytes).
    Removing stm32f10x_tim.o(i.TIM_OC4FastConfig), (22 bytes).
    Removing stm32f10x_tim.o(i.TIM_OC4Init), (116 bytes).
    Removing stm32f10x_tim.o(i.TIM_OC4PolarityConfig), (22 bytes).
    Removing stm32f10x_tim.o(i.TIM_OC4PreloadConfig), (22 bytes).
    Removing stm32f10x_tim.o(i.TIM_OCStructInit), (20 bytes).
    Removing stm32f10x_tim.o(i.TIM_PWMIConfig), (124 bytes).
    Removing stm32f10x_tim.o(i.TIM_PrescalerConfig), (6 bytes).
    Removing stm32f10x_tim.o(i.TIM_SelectCCDMA), (24 bytes).
    Removing stm32f10x_tim.o(i.TIM_SelectCOM), (24 bytes).
    Removing stm32f10x_tim.o(i.TIM_SelectHallSensor), (24 bytes).
    Removing stm32f10x_tim.o(i.TIM_SelectInputTrigger), (18 bytes).
    Removing stm32f10x_tim.o(i.TIM_SelectMasterSlaveMode), (18 bytes).
    Removing stm32f10x_tim.o(i.TIM_SelectOCxM), (82 bytes).
    Removing stm32f10x_tim.o(i.TIM_SelectOnePulseMode), (18 bytes).
    Removing stm32f10x_tim.o(i.TIM_SelectOutputTrigger), (18 bytes).
    Removing stm32f10x_tim.o(i.TIM_SelectSlaveMode), (18 bytes).
    Removing stm32f10x_tim.o(i.TIM_SetAutoreload), (4 bytes).
    Removing stm32f10x_tim.o(i.TIM_SetClockDivision), (18 bytes).
    Removing stm32f10x_tim.o(i.TIM_SetCompare1), (4 bytes).
    Removing stm32f10x_tim.o(i.TIM_SetCompare2), (4 bytes).
    Removing stm32f10x_tim.o(i.TIM_SetCompare3), (4 bytes).
    Removing stm32f10x_tim.o(i.TIM_SetCompare4), (6 bytes).
    Removing stm32f10x_tim.o(i.TIM_SetCounter), (4 bytes).
    Removing stm32f10x_tim.o(i.TIM_SetIC1Prescaler), (18 bytes).
    Removing stm32f10x_tim.o(i.TIM_SetIC2Prescaler), (22 bytes).
    Removing stm32f10x_tim.o(i.TIM_SetIC3Prescaler), (18 bytes).
    Removing stm32f10x_tim.o(i.TIM_SetIC4Prescaler), (22 bytes).
    Removing stm32f10x_tim.o(i.TIM_TIxExternalClockConfig), (62 bytes).
    Removing stm32f10x_tim.o(i.TIM_TimeBaseInit), (164 bytes).
    Removing stm32f10x_tim.o(i.TIM_TimeBaseStructInit), (18 bytes).
    Removing stm32f10x_tim.o(i.TIM_UpdateDisableConfig), (24 bytes).
    Removing stm32f10x_tim.o(i.TIM_UpdateRequestConfig), (24 bytes).
    Removing stm32f10x_usart.o(i.USART_ClearITPendingBit), (30 bytes).
    Removing stm32f10x_usart.o(i.USART_ClockStructInit), (12 bytes).
    Removing stm32f10x_usart.o(i.USART_DMACmd), (24 bytes).
    Removing stm32f10x_usart.o(i.USART_DeInit), (156 bytes).
    Removing stm32f10x_usart.o(i.USART_HalfDuplexCmd), (24 bytes).
    Removing stm32f10x_usart.o(i.USART_IrDACmd), (24 bytes).
    Removing stm32f10x_usart.o(i.USART_IrDAConfig), (18 bytes).
    Removing stm32f10x_usart.o(i.USART_LINBreakDetectLengthConfig), (18 bytes).
    Removing stm32f10x_usart.o(i.USART_LINCmd), (24 bytes).
    Removing stm32f10x_usart.o(i.USART_OneBitMethodCmd), (24 bytes).
    Removing stm32f10x_usart.o(i.USART_OverSampling8Cmd), (22 bytes).
    Removing stm32f10x_usart.o(i.USART_ReceiverWakeUpCmd), (24 bytes).
    Removing stm32f10x_usart.o(i.USART_SendBreak), (10 bytes).
    Removing stm32f10x_usart.o(i.USART_SetAddress), (18 bytes).
    Removing stm32f10x_usart.o(i.USART_SetGuardTime), (16 bytes).
    Removing stm32f10x_usart.o(i.USART_SetPrescaler), (16 bytes).
    Removing stm32f10x_usart.o(i.USART_SmartCardCmd), (24 bytes).
    Removing stm32f10x_usart.o(i.USART_SmartCardNACKCmd), (24 bytes).
    Removing stm32f10x_usart.o(i.USART_StructInit), (24 bytes).
    Removing stm32f10x_usart.o(i.USART_WakeUpConfig), (18 bytes).
    Removing stm32f10x_adc.o(i.ADC_AnalogWatchdogCmd), (20 bytes).
    Removing stm32f10x_adc.o(i.ADC_AnalogWatchdogSingleChannelConfig), (16 bytes).
    Removing stm32f10x_adc.o(i.ADC_AnalogWatchdogThresholdsConfig), (6 bytes).
    Removing stm32f10x_adc.o(i.ADC_AutoInjectedConvCmd), (22 bytes).
    Removing stm32f10x_adc.o(i.ADC_ClearFlag), (6 bytes).
    Removing stm32f10x_adc.o(i.ADC_ClearITPendingBit), (10 bytes).
    Removing stm32f10x_adc.o(i.ADC_DMACmd), (22 bytes).
    Removing stm32f10x_adc.o(i.ADC_DeInit), (92 bytes).
    Removing stm32f10x_adc.o(i.ADC_DiscModeChannelCountConfig), (24 bytes).
    Removing stm32f10x_adc.o(i.ADC_DiscModeCmd), (22 bytes).
    Removing stm32f10x_adc.o(i.ADC_ExternalTrigConvCmd), (22 bytes).
    Removing stm32f10x_adc.o(i.ADC_ExternalTrigInjectedConvCmd), (22 bytes).
    Removing stm32f10x_adc.o(i.ADC_ExternalTrigInjectedConvConfig), (16 bytes).
    Removing stm32f10x_adc.o(i.ADC_GetCalibrationStatus), (20 bytes).
    Removing stm32f10x_adc.o(i.ADC_GetDualModeConversionValue), (12 bytes).
    Removing stm32f10x_adc.o(i.ADC_GetITStatus), (36 bytes).
    Removing stm32f10x_adc.o(i.ADC_GetInjectedConversionValue), (18 bytes).
    Removing stm32f10x_adc.o(i.ADC_GetResetCalibrationStatus), (20 bytes).
    Removing stm32f10x_adc.o(i.ADC_GetSoftwareStartConvStatus), (20 bytes).
    Removing stm32f10x_adc.o(i.ADC_GetSoftwareStartInjectedConvCmdStatus), (20 bytes).
    Removing stm32f10x_adc.o(i.ADC_ITConfig), (24 bytes).
    Removing stm32f10x_adc.o(i.ADC_InjectedChannelConfig), (130 bytes).
    Removing stm32f10x_adc.o(i.ADC_InjectedDiscModeCmd), (22 bytes).
    Removing stm32f10x_adc.o(i.ADC_InjectedSequencerLengthConfig), (24 bytes).
    Removing stm32f10x_adc.o(i.ADC_ResetCalibration), (10 bytes).
    Removing stm32f10x_adc.o(i.ADC_SetInjectedOffset), (12 bytes).
    Removing stm32f10x_adc.o(i.ADC_SoftwareStartInjectedConvCmd), (22 bytes).
    Removing stm32f10x_adc.o(i.ADC_StartCalibration), (10 bytes).
    Removing stm32f10x_adc.o(i.ADC_StructInit), (18 bytes).
    Removing stm32f10x_adc.o(i.ADC_TempSensorVrefintCmd), (44 bytes).
    Removing startup_stm32f10x_hd.o(HEAP), (512 bytes).
    Removing my_string.o(i.Int2DecStr), (164 bytes).
    Removing my_string.o(i.float2str), (32 bytes).
    Removing my_string.o(.bss), (17 bytes).
    Removing my_string.o(.data), (6 bytes).
    Removing datetime.o(i.xml_time), (124 bytes).
    Removing sim800.o(.constdata), (73 bytes).
    Removing gsensor.o(i.MBA220_INT), (16 bytes).
    Removing gps_algorithm.o(.constdata), (8 bytes).

382 unused section(s) (total 17275 bytes) removed from the image.

==============================================================================

Image Symbol Table

    Local Symbols

    Symbol Name                              Value     Ov Type        Size  Object(Section)

    ../../../cmprslib/zerorunl2.c            0x00000000   Number         0  __dczerorl2.o ABSOLUTE
    ../../atof.c                             0x00000000   Number         0  atof.o ABSOLUTE
    ../../cos.c                              0x00000000   Number         0  cos.o ABSOLUTE
    ../../cos.c                              0x00000000   Number         0  cos_x.o ABSOLUTE
    ../../cos_i.c                            0x00000000   Number         0  cos_i.o ABSOLUTE
    ../../dunder.c                           0x00000000   Number         0  dunder.o ABSOLUTE
    ../../fpclassify.c                       0x00000000   Number         0  fpclassify.o ABSOLUTE
    ../../microlib/ctype/ctype.c             0x00000000   Number         0  ctype_c.o ABSOLUTE
    ../../microlib/ctype/ctype.c             0x00000000   Number         0  isspace_c.o ABSOLUTE
    ../../microlib/d2f.c                     0x00000000   Number         0  d2f.o ABSOLUTE
    ../../microlib/division.c                0x00000000   Number         0  uidiv.o ABSOLUTE
    ../../microlib/division.c                0x00000000   Number         0  uldiv.o ABSOLUTE
    ../../microlib/errno.c                   0x00000000   Number         0  errno.o ABSOLUTE
    ../../microlib/f2d.c                     0x00000000   Number         0  f2d.o ABSOLUTE
    ../../microlib/fpadd.c                   0x00000000   Number         0  dadd.o ABSOLUTE
    ../../microlib/fpdiv.c                   0x00000000   Number         0  ddiv.o ABSOLUTE
    ../../microlib/fpdiv.c                   0x00000000   Number         0  fdiv.o ABSOLUTE
    ../../microlib/fpepilogue.c              0x00000000   Number         0  depilogue.o ABSOLUTE
    ../../microlib/fpepilogue.c              0x00000000   Number         0  fepilogue.o ABSOLUTE
    ../../microlib/fpfix.c                   0x00000000   Number         0  dfixi.o ABSOLUTE
    ../../microlib/fpfix.c                   0x00000000   Number         0  ffixi.o ABSOLUTE
    ../../microlib/fpfix.c                   0x00000000   Number         0  dfixul.o ABSOLUTE
    ../../microlib/fpflt.c                   0x00000000   Number         0  ffltui.o ABSOLUTE
    ../../microlib/fpflt.c                   0x00000000   Number         0  dfltui.o ABSOLUTE
    ../../microlib/fpflt.c                   0x00000000   Number         0  dflti.o ABSOLUTE
    ../../microlib/fpflt.c                   0x00000000   Number         0  fflti.o ABSOLUTE
    ../../microlib/fpflt.c                   0x00000000   Number         0  dfltul.o ABSOLUTE
    ../../microlib/fpmul.c                   0x00000000   Number         0  fmul.o ABSOLUTE
    ../../microlib/fpmul.c                   0x00000000   Number         0  dmul.o ABSOLUTE
    ../../microlib/fpscalb.c                 0x00000000   Number         0  dscalb.o ABSOLUTE
    ../../microlib/fpsqrt.c                  0x00000000   Number         0  dsqrt.o ABSOLUTE
    ../../microlib/init/entry.s              0x00000000   Number         0  entry.o ABSOLUTE
    ../../microlib/init/entry.s              0x00000000   Number         0  entry7.o ABSOLUTE
    ../../microlib/init/entry.s              0x00000000   Number         0  entry5.o ABSOLUTE
    ../../microlib/init/entry.s              0x00000000   Number         0  entry2.o ABSOLUTE
    ../../microlib/longlong.c                0x00000000   Number         0  llshl.o ABSOLUTE
    ../../microlib/longlong.c                0x00000000   Number         0  llushr.o ABSOLUTE
    ../../microlib/longlong.c                0x00000000   Number         0  llsshr.o ABSOLUTE
    ../../microlib/printf/printf.c           0x00000000   Number         0  printf1.o ABSOLUTE
    ../../microlib/printf/printf.c           0x00000000   Number         0  printf2.o ABSOLUTE
    ../../microlib/printf/printf.c           0x00000000   Number         0  printf4.o ABSOLUTE
    ../../microlib/printf/printf.c           0x00000000   Number         0  printf3.o ABSOLUTE
    ../../microlib/printf/printf.c           0x00000000   Number         0  printfa.o ABSOLUTE
    ../../microlib/printf/printf.c           0x00000000   Number         0  printf0.o ABSOLUTE
    ../../microlib/printf/printf.c           0x00000000   Number         0  printf7.o ABSOLUTE
    ../../microlib/printf/printf.c           0x00000000   Number         0  printf8.o ABSOLUTE
    ../../microlib/printf/printf.c           0x00000000   Number         0  printf5.o ABSOLUTE
    ../../microlib/printf/printf.c           0x00000000   Number         0  printf6.o ABSOLUTE
    ../../microlib/printf/printf.c           0x00000000   Number         0  printfb.o ABSOLUTE
    ../../microlib/printf/stubs.s            0x00000000   Number         0  stubs.o ABSOLUTE
    ../../microlib/stdio/streams.c           0x00000000   Number         0  stdout.o ABSOLUTE
    ../../microlib/stdlib/abs.c              0x00000000   Number         0  ilabs.o ABSOLUTE
    ../../microlib/stdlib/abs.c              0x00000000   Number         0  siabs.o ABSOLUTE
    ../../microlib/string/memcpy.c           0x00000000   Number         0  memcpyb.o ABSOLUTE
    ../../microlib/string/memcpy.c           0x00000000   Number         0  memcpya.o ABSOLUTE
    ../../microlib/string/memset.c           0x00000000   Number         0  memseta.o ABSOLUTE
    ../../microlib/string/strcat.c           0x00000000   Number         0  strcat.o ABSOLUTE
    ../../microlib/string/strcmp.c           0x00000000   Number         0  strcmp.o ABSOLUTE
    ../../microlib/string/strcpy.c           0x00000000   Number         0  strcpy.o ABSOLUTE
    ../../microlib/string/strlen.c           0x00000000   Number         0  strlen.o ABSOLUTE
    ../../microlib/string/strstr.c           0x00000000   Number         0  strstr.o ABSOLUTE
    ../../microlib/stubs.s                   0x00000000   Number         0  iusefp.o ABSOLUTE
    ../../poly.c                             0x00000000   Number         0  poly.o ABSOLUTE
    ../../pow.c                              0x00000000   Number         0  pow.o ABSOLUTE
    ../../pow.c                              0x00000000   Number         0  pow_x.o ABSOLUTE
    ../../qnan.c                             0x00000000   Number         0  qnan.o ABSOLUTE
    ../../rred.c                             0x00000000   Number         0  rred.o ABSOLUTE
    ../../scanf.c                            0x00000000   Number         0  strtod.o ABSOLUTE
    ../../scanf.c                            0x00000000   Number         0  scanf_fp.o ABSOLUTE
    ../../scanf.c                            0x00000000   Number         0  _sgetc.o ABSOLUTE
    ../../sin.c                              0x00000000   Number         0  sin_x.o ABSOLUTE
    ../../sin.c                              0x00000000   Number         0  sin.o ABSOLUTE
    ../../sin_i.c                            0x00000000   Number         0  sin_i.o ABSOLUTE
    ../../sin_i.c                            0x00000000   Number         0  sin_i_x.o ABSOLUTE
    ../../sqrt.c                             0x00000000   Number         0  sqrt_x.o ABSOLUTE
    ../../sqrt.c                             0x00000000   Number         0  sqrt.o ABSOLUTE
    ..\Libraries\CMSIS\CM3\CoreSupport\core_cm3.c 0x00000000   Number         0  core_cm3.o ABSOLUTE
    ..\Libraries\STM32F10x_StdPeriph_Driver\src\misc.c 0x00000000   Number         0  misc.o ABSOLUTE
    ..\Libraries\STM32F10x_StdPeriph_Driver\src\stm32f10x_adc.c 0x00000000   Number         0  stm32f10x_adc.o ABSOLUTE
    ..\Libraries\STM32F10x_StdPeriph_Driver\src\stm32f10x_dbgmcu.c 0x00000000   Number         0  stm32f10x_dbgmcu.o ABSOLUTE
    ..\Libraries\STM32F10x_StdPeriph_Driver\src\stm32f10x_dma.c 0x00000000   Number         0  stm32f10x_dma.o ABSOLUTE
    ..\Libraries\STM32F10x_StdPeriph_Driver\src\stm32f10x_exti.c 0x00000000   Number         0  stm32f10x_exti.o ABSOLUTE
    ..\Libraries\STM32F10x_StdPeriph_Driver\src\stm32f10x_flash.c 0x00000000   Number         0  stm32f10x_flash.o ABSOLUTE
    ..\Libraries\STM32F10x_StdPeriph_Driver\src\stm32f10x_fsmc.c 0x00000000   Number         0  stm32f10x_fsmc.o ABSOLUTE
    ..\Libraries\STM32F10x_StdPeriph_Driver\src\stm32f10x_gpio.c 0x00000000   Number         0  stm32f10x_gpio.o ABSOLUTE
    ..\Libraries\STM32F10x_StdPeriph_Driver\src\stm32f10x_iwdg.c 0x00000000   Number         0  stm32f10x_iwdg.o ABSOLUTE
    ..\Libraries\STM32F10x_StdPeriph_Driver\src\stm32f10x_pwr.c 0x00000000   Number         0  stm32f10x_pwr.o ABSOLUTE
    ..\Libraries\STM32F10x_StdPeriph_Driver\src\stm32f10x_rcc.c 0x00000000   Number         0  stm32f10x_rcc.o ABSOLUTE
    ..\Libraries\STM32F10x_StdPeriph_Driver\src\stm32f10x_sdio.c 0x00000000   Number         0  stm32f10x_sdio.o ABSOLUTE
    ..\Libraries\STM32F10x_StdPeriph_Driver\src\stm32f10x_spi.c 0x00000000   Number         0  stm32f10x_spi.o ABSOLUTE
    ..\Libraries\STM32F10x_StdPeriph_Driver\src\stm32f10x_tim.c 0x00000000   Number         0  stm32f10x_tim.o ABSOLUTE
    ..\Libraries\STM32F10x_StdPeriph_Driver\src\stm32f10x_usart.c 0x00000000   Number         0  stm32f10x_usart.o ABSOLUTE
    ..\Libraries\STM32_USB-FS-Device_Driver\src\otgd_fs_cal.c 0x00000000   Number         0  otgd_fs_cal.o ABSOLUTE
    ..\Libraries\STM32_USB-FS-Device_Driver\src\otgd_fs_dev.c 0x00000000   Number         0  otgd_fs_dev.o ABSOLUTE
    ..\Libraries\STM32_USB-FS-Device_Driver\src\otgd_fs_int.c 0x00000000   Number         0  otgd_fs_int.o ABSOLUTE
    ..\Libraries\STM32_USB-FS-Device_Driver\src\otgd_fs_pcd.c 0x00000000   Number         0  otgd_fs_pcd.o ABSOLUTE
    ..\Libraries\STM32_USB-FS-Device_Driver\src\usb_core.c 0x00000000   Number         0  usb_core.o ABSOLUTE
    ..\Libraries\STM32_USB-FS-Device_Driver\src\usb_init.c 0x00000000   Number         0  usb_init.o ABSOLUTE
    ..\Libraries\STM32_USB-FS-Device_Driver\src\usb_int.c 0x00000000   Number         0  usb_int.o ABSOLUTE
    ..\Libraries\STM32_USB-FS-Device_Driver\src\usb_mem.c 0x00000000   Number         0  usb_mem.o ABSOLUTE
    ..\Libraries\STM32_USB-FS-Device_Driver\src\usb_regs.c 0x00000000   Number         0  usb_regs.o ABSOLUTE
    ..\Libraries\STM32_USB-FS-Device_Driver\src\usb_sil.c 0x00000000   Number         0  usb_sil.o ABSOLUTE
    ..\Libraries\UART\uart1.c                0x00000000   Number         0  uart1.o ABSOLUTE
    ..\Libraries\UART\uart2.c                0x00000000   Number         0  uart2.o ABSOLUTE
    ..\Libraries\UART\uart3.c                0x00000000   Number         0  uart3.o ABSOLUTE
    ..\Libraries\datetime\datetime.c         0x00000000   Number         0  datetime.o ABSOLUTE
    ..\Libraries\fatfs\diskio.c              0x00000000   Number         0  diskio.o ABSOLUTE
    ..\Libraries\fatfs\ff.c                  0x00000000   Number         0  ff.o ABSOLUTE
    ..\Libraries\spiflash\w25xx.c            0x00000000   Number         0  w25xx.o ABSOLUTE
    ..\Libraries\string\my_string.c          0x00000000   Number         0  my_string.o ABSOLUTE
    ..\Libraries\systick\systick.c           0x00000000   Number         0  systick.o ABSOLUTE
    ..\\Libraries\\CMSIS\\CM3\\CoreSupport\\core_cm3.c 0x00000000   Number         0  core_cm3.o ABSOLUTE
    GPS\gps_algorithm.c                      0x00000000   Number         0  gps_algorithm.o ABSOLUTE
    GPS\gps_receive_task.c                   0x00000000   Number         0  gps_receive_task.o ABSOLUTE
    Mass_Storage\hw_config.c                 0x00000000   Number         0  hw_config.o ABSOLUTE
    Mass_Storage\mass_mal.c                  0x00000000   Number         0  mass_mal.o ABSOLUTE
    Mass_Storage\memory.c                    0x00000000   Number         0  memory.o ABSOLUTE
    Mass_Storage\scsi_data.c                 0x00000000   Number         0  scsi_data.o ABSOLUTE
    Mass_Storage\usb_bot.c                   0x00000000   Number         0  usb_bot.o ABSOLUTE
    Mass_Storage\usb_desc.c                  0x00000000   Number         0  usb_desc.o ABSOLUTE
    Mass_Storage\usb_endp.c                  0x00000000   Number         0  usb_endp.o ABSOLUTE
    Mass_Storage\usb_istr.c                  0x00000000   Number         0  usb_istr.o ABSOLUTE
    Mass_Storage\usb_prop.c                  0x00000000   Number         0  usb_prop.o ABSOLUTE
    Mass_Storage\usb_pwr.c                   0x00000000   Number         0  usb_pwr.o ABSOLUTE
    Mass_Storage\usb_scsi.c                  0x00000000   Number         0  usb_scsi.o ABSOLUTE
    cdcmple.s                                0x00000000   Number         0  cdcmple.o ABSOLUTE
    cdrcmple.s                               0x00000000   Number         0  cdrcmple.o ABSOLUTE
    cfrcmple.s                               0x00000000   Number         0  cfrcmple.o ABSOLUTE
    config\sys_cfg.c                         0x00000000   Number         0  sys_cfg.o ABSOLUTE
    dc.s                                     0x00000000   Number         0  dc.o ABSOLUTE
    gprs\sim800.c                            0x00000000   Number         0  sim800.o ABSOLUTE
    gpx_record\gpx_record_task.c             0x00000000   Number         0  gpx_record_task.o ABSOLUTE
    gsensor\gsensor.c                        0x00000000   Number         0  gsensor.o ABSOLUTE
    gsensor\sof_iic.c                        0x00000000   Number         0  sof_iic.o ABSOLUTE
    handlers.s                               0x00000000   Number         0  handlers.o ABSOLUTE
    init.s                                   0x00000000   Number         0  init.o ABSOLUTE
    let_us_go\let_us_go.c                    0x00000000   Number         0  let_us_go.o ABSOLUTE
    main.c                                   0x00000000   Number         0  main.o ABSOLUTE
    startup_stm32f10x_hd.s                   0x00000000   Number         0  startup_stm32f10x_hd.o ABSOLUTE
    stm32f10x_it.c                           0x00000000   Number         0  stm32f10x_it.o ABSOLUTE
    system\system.c                          0x00000000   Number         0  system.o ABSOLUTE
    system_stm32f10x.c                       0x00000000   Number         0  system_stm32f10x.o ABSOLUTE
    yeelink\yeelink.c                        0x00000000   Number         0  yeelink.o ABSOLUTE
    RESET                                    0x08000000   Section      304  startup_stm32f10x_hd.o(RESET)
    .ARM.Collect$$$$00000000                 0x08000130   Section        0  entry.o(.ARM.Collect$$$$00000000)
    .ARM.Collect$$$$00000001                 0x08000130   Section        4  entry2.o(.ARM.Collect$$$$00000001)
    .ARM.Collect$$$$00000004                 0x08000134   Section        4  entry5.o(.ARM.Collect$$$$00000004)
    .ARM.Collect$$$$00000007                 0x08000138   Section        8  entry7.o(.ARM.Collect$$$$00000007)
    .ARM.Collect$$$$00002712                 0x08000140   Section        4  entry2.o(.ARM.Collect$$$$00002712)
    __lit__00000000                          0x08000140   Data           4  entry2.o(.ARM.Collect$$$$00002712)
    .text                                    0x08000144   Section       36  startup_stm32f10x_hd.o(.text)
    .text                                    0x08000168   Section        0  gps_algorithm.o(.text)
    outOfChina                               0x080002c1   Thumb Code    82  gps_algorithm.o(.text)
    transformLat                             0x08000313   Thumb Code   740  gps_algorithm.o(.text)
    transformLon                             0x080005f7   Thumb Code   626  gps_algorithm.o(.text)
    .text                                    0x08000a68   Section        0  gpx_record_task.o(.text)
    .text                                    0x08000d78   Section        0  siabs.o(.text)
    .text                                    0x08000d84   Section        0  memcpya.o(.text)
    .text                                    0x08000da8   Section        0  memseta.o(.text)
    .text                                    0x08000dce   Section        0  strcat.o(.text)
    .text                                    0x08000dea   Section        0  strstr.o(.text)
    .text                                    0x08000e16   Section        0  strlen.o(.text)
    .text                                    0x08000e26   Section        0  strcmp.o(.text)
    .text                                    0x08000e42   Section        0  strcpy.o(.text)
    .text                                    0x08000e54   Section        0  fmul.o(.text)
    .text                                    0x08000ec0   Section        0  fdiv.o(.text)
    .text                                    0x08000f40   Section        0  dadd.o(.text)
    .text                                    0x0800108a   Section        0  dmul.o(.text)
    .text                                    0x0800116c   Section        0  ddiv.o(.text)
    .text                                    0x0800124a   Section        0  fflti.o(.text)
    .text                                    0x0800125c   Section        0  ffltui.o(.text)
    .text                                    0x08001266   Section        0  ffixi.o(.text)
    .text                                    0x08001298   Section        0  dfixi.o(.text)
    .text                                    0x080012d6   Section        0  f2d.o(.text)
    .text                                    0x08001304   Section       40  cdcmple.o(.text)
    .text                                    0x0800132c   Section       40  cdrcmple.o(.text)
    .text                                    0x08001354   Section        0  d2f.o(.text)
    .text                                    0x0800138c   Section       20  cfrcmple.o(.text)
    .text                                    0x080013a0   Section        0  uidiv.o(.text)
    .text                                    0x080013cc   Section        0  uldiv.o(.text)
    .text                                    0x08001432   Section        0  llshl.o(.text)
    .text                                    0x08001450   Section        0  llushr.o(.text)
    .text                                    0x08001470   Section        0  llsshr.o(.text)
    .text                                    0x08001494   Section        0  strtod.o(.text)
    _local_sscanf                            0x08001495   Thumb Code    54  strtod.o(.text)
    .text                                    0x0800152c   Section        0  iusefp.o(.text)
    .text                                    0x0800152c   Section        0  fepilogue.o(.text)
    .text                                    0x0800159c   Section        0  depilogue.o(.text)
    .text                                    0x0800165e   Section        0  dscalb.o(.text)
    .text                                    0x0800168c   Section        0  dsqrt.o(.text)
    .text                                    0x0800172c   Section        0  dflti.o(.text)
    .text                                    0x0800174e   Section        0  dfixul.o(.text)
    .text                                    0x08001780   Section       36  init.o(.text)
    .text                                    0x080017a4   Section        0  isspace_c.o(.text)
    .text                                    0x080017b0   Section        0  scanf_fp.o(.text)
    _fp_value                                0x080017b1   Thumb Code   270  scanf_fp.o(.text)
    .text                                    0x08001b00   Section        0  _sgetc.o(.text)
    .text                                    0x08001b40   Section        0  dfltui.o(.text)
    .text                                    0x08001b5c   Section        0  ctype_c.o(.text)
    .text                                    0x08001b84   Section        0  dfltul.o(.text)
    .text                                    0x08001b9c   Section        0  __dczerorl2.o(.text)
    i.ADC_Cmd                                0x08001bf8   Section        0  stm32f10x_adc.o(i.ADC_Cmd)
    i.ADC_Configuration                      0x08001c10   Section        0  system.o(i.ADC_Configuration)
    i.ADC_GetConversionValue                 0x08001c7c   Section        0  stm32f10x_adc.o(i.ADC_GetConversionValue)
    i.ADC_GetFlagStatus                      0x08001c84   Section        0  stm32f10x_adc.o(i.ADC_GetFlagStatus)
    i.ADC_Init                               0x08001c98   Section        0  stm32f10x_adc.o(i.ADC_Init)
    i.ADC_RegularChannelConfig               0x08001ce8   Section        0  stm32f10x_adc.o(i.ADC_RegularChannelConfig)
    i.ADC_SoftwareStartConvCmd               0x08001da0   Section        0  stm32f10x_adc.o(i.ADC_SoftwareStartConvCmd)
    i.ADC_task                               0x08001db8   Section        0  system.o(i.ADC_task)
    i.ADC_taskctrl                           0x08002024   Section        0  system.o(i.ADC_taskctrl)
    i.ADC_taskinit                           0x08002034   Section        0  system.o(i.ADC_taskinit)
    i.Bot_Abort                              0x0800205c   Section        0  usb_bot.o(i.Bot_Abort)
    i.BusFault_Handler                       0x0800209c   Section        0  stm32f10x_it.o(i.BusFault_Handler)
    i.ByteSwap                               0x080020a0   Section        0  usb_regs.o(i.ByteSwap)
    i.CBW_Decode                             0x080020ac   Section        0  usb_bot.o(i.CBW_Decode)
    i.CTR_HP                                 0x08002370   Section        0  usb_int.o(i.CTR_HP)
    i.CTR_LP                                 0x08002438   Section        0  usb_int.o(i.CTR_LP)
    i.ClearDTOG_RX                           0x080026c0   Section        0  usb_regs.o(i.ClearDTOG_RX)
    i.ClearDTOG_TX                           0x080026f8   Section        0  usb_regs.o(i.ClearDTOG_TX)
    i.Clear_Status_Out                       0x08002730   Section        0  usb_regs.o(i.Clear_Status_Out)
    i.DataStageIn                            0x08002758   Section        0  usb_core.o(i.DataStageIn)
    DataStageIn                              0x08002759   Thumb Code   172  usb_core.o(i.DataStageIn)
    i.DataStageOut                           0x0800281c   Section        0  usb_core.o(i.DataStageOut)
    DataStageOut                             0x0800281d   Thumb Code   170  usb_core.o(i.DataStageOut)
    i.Data_Setup0                            0x080028dc   Section        0  usb_core.o(i.Data_Setup0)
    Data_Setup0                              0x080028dd   Thumb Code   622  usb_core.o(i.Data_Setup0)
    i.DebugMon_Handler                       0x08002b70   Section        0  stm32f10x_it.o(i.DebugMon_Handler)
    i.DecStr2Int                             0x08002b72   Section        0  my_string.o(i.DecStr2Int)
    i.EP1_IN_Callback                        0x08002c96   Section        0  usb_endp.o(i.EP1_IN_Callback)
    i.EP2_OUT_Callback                       0x08002c9e   Section        0  usb_endp.o(i.EP2_OUT_Callback)
    i.EXTI0_IRQHandler                       0x08002ca8   Section        0  gsensor.o(i.EXTI0_IRQHandler)
    i.EXTI_ClearFlag                         0x08002cd4   Section        0  stm32f10x_exti.o(i.EXTI_ClearFlag)
    i.EXTI_Configuration                     0x08002ce0   Section        0  gsensor.o(i.EXTI_Configuration)
    i.EXTI_GetITStatus                       0x08002d08   Section        0  stm32f10x_exti.o(i.EXTI_GetITStatus)
    i.EXTI_Init                              0x08002d34   Section        0  stm32f10x_exti.o(i.EXTI_Init)
    i.FLASH_ErasePage                        0x08002de0   Section        0  stm32f10x_flash.o(i.FLASH_ErasePage)
    i.FLASH_GetBank1Status                   0x08002e2c   Section        0  stm32f10x_flash.o(i.FLASH_GetBank1Status)
    i.FLASH_Lock                             0x08002e64   Section        0  stm32f10x_flash.o(i.FLASH_Lock)
    i.FLASH_ProgramWord                      0x08002e78   Section        0  stm32f10x_flash.o(i.FLASH_ProgramWord)
    i.FLASH_Unlock                           0x08002edc   Section        0  stm32f10x_flash.o(i.FLASH_Unlock)
    i.FLASH_WaitForLastOperation             0x08002ef4   Section        0  stm32f10x_flash.o(i.FLASH_WaitForLastOperation)
    i.GGA_Parse                              0x08002f1c   Section        0  gps_receive_task.o(i.GGA_Parse)
    i.GLL_Parse                              0x08002fac   Section        0  gps_receive_task.o(i.GLL_Parse)
    i.GPIO_Configuration                     0x08002fe4   Section        0  gsensor.o(i.GPIO_Configuration)
    i.GPIO_EXTILineConfig                    0x08003014   Section        0  stm32f10x_gpio.o(i.GPIO_EXTILineConfig)
    i.GPIO_Init                              0x08003054   Section        0  stm32f10x_gpio.o(i.GPIO_Init)
    i.GPIO_ReadInputDataBit                  0x08003166   Section        0  stm32f10x_gpio.o(i.GPIO_ReadInputDataBit)
    i.GPIO_ResetBits                         0x08003178   Section        0  stm32f10x_gpio.o(i.GPIO_ResetBits)
    i.GPIO_SetBits                           0x0800317c   Section        0  stm32f10x_gpio.o(i.GPIO_SetBits)
    i.GSA_Parse                              0x08003180   Section        0  gps_receive_task.o(i.GSA_Parse)
    i.GSV_Parse                              0x080031ba   Section        0  gps_receive_task.o(i.GSV_Parse)
    i.GetEPRxAddr                            0x080031e8   Section        0  usb_regs.o(i.GetEPRxAddr)
    i.GetEPRxCount                           0x0800320c   Section        0  usb_regs.o(i.GetEPRxCount)
    i.GetEPTxAddr                            0x08003230   Section        0  usb_regs.o(i.GetEPTxAddr)
    i.GetGpsState                            0x08003250   Section        0  gps_receive_task.o(i.GetGpsState)
    i.GetModemMode                           0x08003260   Section        0  sim800.o(i.GetModemMode)
    i.GetModemState                          0x08003270   Section        0  sim800.o(i.GetModemState)
    i.GetSysTick_10Ms                        0x08003280   Section        0  systick.o(i.GetSysTick_10Ms)
    i.GetSysTick_Sec                         0x0800328c   Section        0  systick.o(i.GetSysTick_Sec)
    i.Get_Max_Lun                            0x08003298   Section        0  usb_prop.o(i.Get_Max_Lun)
    i.Get_SerialNum                          0x080032b4   Section        0  hw_config.o(i.Get_SerialNum)
    i.HardFault_Handler                      0x080032f0   Section        0  stm32f10x_it.o(i.HardFault_Handler)
    i.HexToChar                              0x080032f8   Section        0  gps_receive_task.o(i.HexToChar)
    i.I2C_Ack                                0x08003314   Section        0  sof_iic.o(i.I2C_Ack)
    I2C_Ack                                  0x08003315   Thumb Code    52  sof_iic.o(i.I2C_Ack)
    i.I2C_Configuration                      0x08003354   Section        0  sof_iic.o(i.I2C_Configuration)
    i.I2C_NoAck                              0x08003380   Section        0  sof_iic.o(i.I2C_NoAck)
    I2C_NoAck                                0x08003381   Thumb Code    52  sof_iic.o(i.I2C_NoAck)
    i.I2C_ReadByte                           0x080033c0   Section        0  sof_iic.o(i.I2C_ReadByte)
    i.I2C_ReceiveByte                        0x08003444   Section        0  sof_iic.o(i.I2C_ReceiveByte)
    I2C_ReceiveByte                          0x08003445   Thumb Code    82  sof_iic.o(i.I2C_ReceiveByte)
    i.I2C_SDA_IN                             0x080034a8   Section        0  sof_iic.o(i.I2C_SDA_IN)
    i.I2C_SDA_OUT                            0x080034cc   Section        0  sof_iic.o(i.I2C_SDA_OUT)
    i.I2C_SendByte                           0x080034f0   Section        0  sof_iic.o(i.I2C_SendByte)
    I2C_SendByte                             0x080034f1   Thumb Code    78  sof_iic.o(i.I2C_SendByte)
    i.I2C_Start                              0x08003548   Section        0  sof_iic.o(i.I2C_Start)
    I2C_Start                                0x08003549   Thumb Code    88  sof_iic.o(i.I2C_Start)
    i.I2C_Stop                               0x080035b0   Section        0  sof_iic.o(i.I2C_Stop)
    I2C_Stop                                 0x080035b1   Thumb Code    52  sof_iic.o(i.I2C_Stop)
    i.I2C_WaitAck                            0x080035f0   Section        0  sof_iic.o(i.I2C_WaitAck)
    I2C_WaitAck                              0x080035f1   Thumb Code    78  sof_iic.o(i.I2C_WaitAck)
    i.I2C_WriteByte                          0x0800364c   Section        0  sof_iic.o(i.I2C_WriteByte)
    i.I2C_delay                              0x0800369a   Section        0  sof_iic.o(i.I2C_delay)
    I2C_delay                                0x0800369b   Thumb Code    14  sof_iic.o(i.I2C_delay)
    i.IWDG_Configuration                     0x080036a8   Section        0  main.o(i.IWDG_Configuration)
    i.IWDG_Enable                            0x080036d0   Section        0  stm32f10x_iwdg.o(i.IWDG_Enable)
    i.IWDG_ReloadCounter                     0x080036e0   Section        0  stm32f10x_iwdg.o(i.IWDG_ReloadCounter)
    i.IWDG_SetPrescaler                      0x080036f0   Section        0  stm32f10x_iwdg.o(i.IWDG_SetPrescaler)
    i.IWDG_SetReload                         0x080036fc   Section        0  stm32f10x_iwdg.o(i.IWDG_SetReload)
    i.IWDG_WriteAccessCmd                    0x08003708   Section        0  stm32f10x_iwdg.o(i.IWDG_WriteAccessCmd)
    i.In0_Process                            0x08003714   Section        0  usb_core.o(i.In0_Process)
    i.IntToUnicode                           0x08003784   Section        0  hw_config.o(i.IntToUnicode)
    IntToUnicode                             0x08003785   Thumb Code    62  hw_config.o(i.IntToUnicode)
    i.IsLeapYear                             0x080037c2   Section        0  datetime.o(i.IsLeapYear)
    i.Led_RW_OFF                             0x080037ee   Section        0  hw_config.o(i.Led_RW_OFF)
    i.Led_RW_ON                              0x080037fc   Section        0  hw_config.o(i.Led_RW_ON)
    i.MAL_Config                             0x0800380a   Section        0  hw_config.o(i.MAL_Config)
    i.MAL_GetStatus                          0x08003814   Section        0  mass_mal.o(i.MAL_GetStatus)
    i.MAL_Init                               0x08003834   Section        0  mass_mal.o(i.MAL_Init)
    i.MAL_Read                               0x08003910   Section        0  mass_mal.o(i.MAL_Read)
    i.MAL_Write                              0x0800393e   Section        0  mass_mal.o(i.MAL_Write)
    i.MASS_Data_Setup                        0x0800396c   Section        0  usb_prop.o(i.MASS_Data_Setup)
    i.MASS_GetConfigDescriptor               0x080039cc   Section        0  usb_prop.o(i.MASS_GetConfigDescriptor)
    i.MASS_GetDeviceDescriptor               0x080039e0   Section        0  usb_prop.o(i.MASS_GetDeviceDescriptor)
    i.MASS_GetStringDescriptor               0x080039f4   Section        0  usb_prop.o(i.MASS_GetStringDescriptor)
    i.MASS_Get_Interface_Setting             0x08003a1c   Section        0  usb_prop.o(i.MASS_Get_Interface_Setting)
    i.MASS_NoData_Setup                      0x08003a34   Section        0  usb_prop.o(i.MASS_NoData_Setup)
    i.MASS_Reset                             0x08003a90   Section        0  usb_prop.o(i.MASS_Reset)
    i.MASS_Status_In                         0x08003b80   Section        0  usb_prop.o(i.MASS_Status_In)
    i.MASS_Status_Out                        0x08003b82   Section        0  usb_prop.o(i.MASS_Status_Out)
    i.MASS_init                              0x08003b84   Section        0  usb_prop.o(i.MASS_init)
    i.MBA220init                             0x08003bac   Section        0  gsensor.o(i.MBA220init)
    i.Mass_Storage_ClearFeature              0x08003c30   Section        0  usb_prop.o(i.Mass_Storage_ClearFeature)
    i.Mass_Storage_In                        0x08003c4c   Section        0  usb_bot.o(i.Mass_Storage_In)
    i.Mass_Storage_Out                       0x08003cc0   Section        0  usb_bot.o(i.Mass_Storage_Out)
    i.Mass_Storage_SetConfiguration          0x08003d50   Section        0  usb_prop.o(i.Mass_Storage_SetConfiguration)
    i.Mass_Storage_SetDeviceAddress          0x08003d80   Section        0  usb_prop.o(i.Mass_Storage_SetDeviceAddress)
    i.MemManage_Handler                      0x08003d8c   Section        0  stm32f10x_it.o(i.MemManage_Handler)
    i.NMI_Handler                            0x08003d90   Section        0  stm32f10x_it.o(i.NMI_Handler)
    i.NOP_Process                            0x08003d92   Section        0  usb_core.o(i.NOP_Process)
    i.NVIC_Configuration                     0x08003d94   Section        0  gsensor.o(i.NVIC_Configuration)
    i.NVIC_Init                              0x08003db8   Section        0  misc.o(i.NVIC_Init)
    i.NVIC_PriorityGroupConfig               0x08003e3c   Section        0  misc.o(i.NVIC_PriorityGroupConfig)
    i.NoData_Setup0                          0x08003e50   Section        0  usb_core.o(i.NoData_Setup0)
    NoData_Setup0                            0x08003e51   Thumb Code   304  usb_core.o(i.NoData_Setup0)
    i.Out0_Process                           0x08003f94   Section        0  usb_core.o(i.Out0_Process)
    i.PMAToUserBufferCopy                    0x08003fe4   Section        0  usb_mem.o(i.PMAToUserBufferCopy)
    i.PWR_EnterSTOPMode                      0x08004008   Section        0  stm32f10x_pwr.o(i.PWR_EnterSTOPMode)
    i.PendSV_Handler                         0x08004050   Section        0  stm32f10x_it.o(i.PendSV_Handler)
    i.Post0_Process                          0x08004054   Section        0  usb_core.o(i.Post0_Process)
    i.PowerOn                                0x0800409c   Section        0  usb_pwr.o(i.PowerOn)
    i.RCC_APB1PeriphClockCmd                 0x080040ec   Section        0  stm32f10x_rcc.o(i.RCC_APB1PeriphClockCmd)
    i.RCC_APB1PeriphResetCmd                 0x0800410c   Section        0  stm32f10x_rcc.o(i.RCC_APB1PeriphResetCmd)
    i.RCC_APB2PeriphClockCmd                 0x0800412c   Section        0  stm32f10x_rcc.o(i.RCC_APB2PeriphClockCmd)
    i.RCC_APB2PeriphResetCmd                 0x0800414c   Section        0  stm32f10x_rcc.o(i.RCC_APB2PeriphResetCmd)
    i.RCC_ClearFlag                          0x0800416c   Section        0  stm32f10x_rcc.o(i.RCC_ClearFlag)
    i.RCC_GetClocksFreq                      0x08004180   Section        0  stm32f10x_rcc.o(i.RCC_GetClocksFreq)
    i.RCC_GetFlagStatus                      0x08004254   Section        0  stm32f10x_rcc.o(i.RCC_GetFlagStatus)
    i.RCC_USBCLKConfig                       0x08004290   Section        0  stm32f10x_rcc.o(i.RCC_USBCLKConfig)
    i.RMC_Parse                              0x0800429c   Section        0  gps_receive_task.o(i.RMC_Parse)
    i.Read_Memory                            0x08004538   Section        0  memory.o(i.Read_Memory)
    i.SCSI_Address_Management                0x08004644   Section        0  usb_scsi.o(i.SCSI_Address_Management)
    i.SCSI_Format_Cmd                        0x080046d0   Section        0  usb_scsi.o(i.SCSI_Format_Cmd)
    i.SCSI_Inquiry_Cmd                       0x08004700   Section        0  usb_scsi.o(i.SCSI_Inquiry_Cmd)
    i.SCSI_Invalid_Cmd                       0x08004748   Section        0  usb_scsi.o(i.SCSI_Invalid_Cmd)
    i.SCSI_ModeSense10_Cmd                   0x0800478c   Section        0  usb_scsi.o(i.SCSI_ModeSense10_Cmd)
    i.SCSI_ModeSense6_Cmd                    0x080047a0   Section        0  usb_scsi.o(i.SCSI_ModeSense6_Cmd)
    i.SCSI_Read10_Cmd                        0x080047b4   Section        0  usb_scsi.o(i.SCSI_Read10_Cmd)
    i.SCSI_ReadCapacity10_Cmd                0x0800482c   Section        0  usb_scsi.o(i.SCSI_ReadCapacity10_Cmd)
    i.SCSI_ReadFormatCapacity_Cmd            0x080048c8   Section        0  usb_scsi.o(i.SCSI_ReadFormatCapacity_Cmd)
    i.SCSI_RequestSense_Cmd                  0x08004950   Section        0  usb_scsi.o(i.SCSI_RequestSense_Cmd)
    i.SCSI_Start_Stop_Unit_Cmd               0x08004978   Section        0  usb_scsi.o(i.SCSI_Start_Stop_Unit_Cmd)
    i.SCSI_TestUnitReady_Cmd                 0x08004988   Section        0  usb_scsi.o(i.SCSI_TestUnitReady_Cmd)
    i.SCSI_Verify10_Cmd                      0x080049c0   Section        0  usb_scsi.o(i.SCSI_Verify10_Cmd)
    i.SCSI_Write10_Cmd                       0x08004a00   Section        0  usb_scsi.o(i.SCSI_Write10_Cmd)
    i.SDIO_IRQHandler                        0x08004a78   Section        0  stm32f10x_it.o(i.SDIO_IRQHandler)
    i.SPI_CalculateCRC                       0x08004a7a   Section        0  stm32f10x_spi.o(i.SPI_CalculateCRC)
    i.SPI_Cmd                                0x08004a92   Section        0  stm32f10x_spi.o(i.SPI_Cmd)
    i.SPI_I2S_DeInit                         0x08004aac   Section        0  stm32f10x_spi.o(i.SPI_I2S_DeInit)
    i.SPI_I2S_GetFlagStatus                  0x08004b04   Section        0  stm32f10x_spi.o(i.SPI_I2S_GetFlagStatus)
    i.SPI_I2S_ReceiveData                    0x08004b16   Section        0  stm32f10x_spi.o(i.SPI_I2S_ReceiveData)
    i.SPI_I2S_SendData                       0x08004b1c   Section        0  stm32f10x_spi.o(i.SPI_I2S_SendData)
    i.SPI_Init                               0x08004b20   Section        0  stm32f10x_spi.o(i.SPI_Init)
    i.SVC_Handler                            0x08004b5c   Section        0  stm32f10x_it.o(i.SVC_Handler)
    i.SetBTABLE                              0x08004b60   Section        0  usb_regs.o(i.SetBTABLE)
    i.SetDeviceAddress                       0x08004b70   Section        0  usb_core.o(i.SetDeviceAddress)
    i.SetEPRxAddr                            0x08004bc4   Section        0  usb_regs.o(i.SetEPRxAddr)
    i.SetEPRxCount                           0x08004be8   Section        0  usb_regs.o(i.SetEPRxCount)
    i.SetEPRxStatus                          0x08004c38   Section        0  usb_regs.o(i.SetEPRxStatus)
    i.SetEPRxValid                           0x08004c7c   Section        0  usb_regs.o(i.SetEPRxValid)
    i.SetEPTxAddr                            0x08004cb0   Section        0  usb_regs.o(i.SetEPTxAddr)
    i.SetEPTxCount                           0x08004cd0   Section        0  usb_regs.o(i.SetEPTxCount)
    i.SetEPTxStatus                          0x08004cf0   Section        0  usb_regs.o(i.SetEPTxStatus)
    i.SetEPType                              0x08004d34   Section        0  usb_regs.o(i.SetEPType)
    i.SetSysClock                            0x08004d58   Section        0  system_stm32f10x.o(i.SetSysClock)
    SetSysClock                              0x08004d59   Thumb Code     8  system_stm32f10x.o(i.SetSysClock)
    i.SetSysClockTo48                        0x08004d60   Section        0  system_stm32f10x.o(i.SetSysClockTo48)
    SetSysClockTo48                          0x08004d61   Thumb Code   192  system_stm32f10x.o(i.SetSysClockTo48)
    i.Set_CSW                                0x08004e28   Section        0  usb_bot.o(i.Set_CSW)
    i.Set_Scsi_Sense_Data                    0x08004e64   Section        0  usb_scsi.o(i.Set_Scsi_Sense_Data)
    i.Set_USBClock                           0x08004e70   Section        0  hw_config.o(i.Set_USBClock)
    i.Setup0_Process                         0x08004e84   Section        0  usb_core.o(i.Setup0_Process)
    i.SoftReset                              0x08004f3c   Section        0  main.o(i.SoftReset)
    i.Standard_ClearFeature                  0x08004f78   Section        0  usb_core.o(i.Standard_ClearFeature)
    i.Standard_GetConfiguration              0x080050e8   Section        0  usb_core.o(i.Standard_GetConfiguration)
    i.Standard_GetDescriptorData             0x08005114   Section        0  usb_core.o(i.Standard_GetDescriptorData)
    i.Standard_GetInterface                  0x08005138   Section        0  usb_core.o(i.Standard_GetInterface)
    i.Standard_GetStatus                     0x08005164   Section        0  usb_core.o(i.Standard_GetStatus)
    i.Standard_SetConfiguration              0x08005264   Section        0  usb_core.o(i.Standard_SetConfiguration)
    i.Standard_SetDeviceFeature              0x080052ac   Section        0  usb_core.o(i.Standard_SetDeviceFeature)
    i.Standard_SetEndPointFeature            0x080052d4   Section        0  usb_core.o(i.Standard_SetEndPointFeature)
    i.Standard_SetInterface                  0x080053a8   Section        0  usb_core.o(i.Standard_SetInterface)
    i.SysTick_Ctrl                           0x08005414   Section        0  systick.o(i.SysTick_Ctrl)
    i.SysTick_Handler                        0x0800543e   Section        0  stm32f10x_it.o(i.SysTick_Handler)
    i.SysTick_HandlerService                 0x08005448   Section        0  systick.o(i.SysTick_HandlerService)
    i.SysTick_Init                           0x08005480   Section        0  systick.o(i.SysTick_Init)
    i.SystemInit                             0x080054e8   Section        0  system_stm32f10x.o(i.SystemInit)
    i.Transfer_Data_Request                  0x08005548   Section        0  usb_bot.o(i.Transfer_Data_Request)
    i.UART1_Configuration                    0x08005580   Section        0  uart1.o(i.UART1_Configuration)
    i.UART2_Configuration                    0x0800564c   Section        0  uart2.o(i.UART2_Configuration)
    i.UART3_Configuration                    0x08005714   Section        0  uart3.o(i.UART3_Configuration)
    i.USART1_IRQHandler                      0x080057dc   Section        0  uart1.o(i.USART1_IRQHandler)
    i.USART1_Interrupts_Config               0x08005860   Section        0  uart1.o(i.USART1_Interrupts_Config)
    USART1_Interrupts_Config                 0x08005861   Thumb Code    32  uart1.o(i.USART1_Interrupts_Config)
    i.USART2_IRQHandler                      0x08005880   Section        0  uart2.o(i.USART2_IRQHandler)
    i.USART2_Interrupts_Config               0x0800593c   Section        0  uart2.o(i.USART2_Interrupts_Config)
    i.USART3_IRQHandler                      0x08005960   Section        0  uart3.o(i.USART3_IRQHandler)
    i.USART3_Interrupts_Config               0x08005a18   Section        0  uart3.o(i.USART3_Interrupts_Config)
    i.USART_ClearFlag                        0x08005a38   Section        0  stm32f10x_usart.o(i.USART_ClearFlag)
    i.USART_ClockInit                        0x08005a4a   Section        0  stm32f10x_usart.o(i.USART_ClockInit)
    i.USART_Cmd                              0x08005a6c   Section        0  stm32f10x_usart.o(i.USART_Cmd)
    i.USART_GetFlagStatus                    0x08005a84   Section        0  stm32f10x_usart.o(i.USART_GetFlagStatus)
    i.USART_GetITStatus                      0x08005a9e   Section        0  stm32f10x_usart.o(i.USART_GetITStatus)
    i.USART_ITConfig                         0x08005af2   Section        0  stm32f10x_usart.o(i.USART_ITConfig)
    i.USART_Init                             0x08005b3c   Section        0  stm32f10x_usart.o(i.USART_Init)
    i.USART_ReceiveData                      0x08005c14   Section        0  stm32f10x_usart.o(i.USART_ReceiveData)
    i.USART_SendData                         0x08005c1e   Section        0  stm32f10x_usart.o(i.USART_SendData)
    i.USB_Cable_Config                       0x08005c28   Section        0  hw_config.o(i.USB_Cable_Config)
    i.USB_Ctrl                               0x08005c4c   Section        0  main.o(i.USB_Ctrl)
    i.USB_Disconnect_Config                  0x08005c88   Section        0  hw_config.o(i.USB_Disconnect_Config)
    i.USB_HP_CAN1_TX_IRQHandler              0x08005cb4   Section        0  stm32f10x_it.o(i.USB_HP_CAN1_TX_IRQHandler)
    i.USB_Init                               0x08005cbc   Section        0  usb_init.o(i.USB_Init)
    i.USB_Interrupts_Config                  0x08005cf8   Section        0  hw_config.o(i.USB_Interrupts_Config)
    i.USB_Istr                               0x08005d34   Section        0  usb_istr.o(i.USB_Istr)
    i.USB_LP_CAN1_RX0_IRQHandler             0x08005d9c   Section        0  stm32f10x_it.o(i.USB_LP_CAN1_RX0_IRQHandler)
    i.USB_NotConfigured_LED                  0x08005da4   Section        0  hw_config.o(i.USB_NotConfigured_LED)
    i.USB_SIL_Init                           0x08005db4   Section        0  usb_sil.o(i.USB_SIL_Init)
    i.USB_SIL_Read                           0x08005de0   Section        0  usb_sil.o(i.USB_SIL_Read)
    i.USB_SIL_Write                          0x08005e0e   Section        0  usb_sil.o(i.USB_SIL_Write)
    i.UTCTime2LocalTime                      0x08005e3c   Section        0  datetime.o(i.UTCTime2LocalTime)
    i.UsageFault_Handler                     0x08005f0e   Section        0  stm32f10x_it.o(i.UsageFault_Handler)
    i.UserToPMABufferCopy                    0x08005f14   Section        0  usb_mem.o(i.UserToPMABufferCopy)
    i.VTG_Parse                              0x08005f4c   Section        0  gps_receive_task.o(i.VTG_Parse)
    i.Wait10Ms                               0x08005fac   Section        0  systick.o(i.Wait10Ms)
    i.WinSocketClrState                      0x08005fc4   Section        0  sim800.o(i.WinSocketClrState)
    i.WinSocketGetState                      0x08005fd8   Section        0  sim800.o(i.WinSocketGetState)
    i.WinSocketInit                          0x08005fe4   Section        0  sim800.o(i.WinSocketInit)
    i.WinSocketSend                          0x08006054   Section        0  sim800.o(i.WinSocketSend)
    i.Write_Memory                           0x080060b8   Section        0  memory.o(i.Write_Memory)
    i.ZDA_Parse                              0x080061e8   Section        0  gps_receive_task.o(i.ZDA_Parse)
    i.__0printf                              0x08006220   Section        0  printfa.o(i.__0printf)
    i.__0sprintf                             0x08006240   Section        0  printfa.o(i.__0sprintf)
    i.__ARM_fpclassify                       0x08006268   Section        0  fpclassify.o(i.__ARM_fpclassify)
    i.__ieee754_rem_pio2                     0x08006290   Section        0  rred.o(i.__ieee754_rem_pio2)
    i.__kernel_cos                           0x08006618   Section        0  cos_i.o(i.__kernel_cos)
    i.__kernel_poly                          0x08006714   Section        0  poly.o(i.__kernel_poly)
    i.__kernel_sin                           0x080067c0   Section        0  sin_i.o(i.__kernel_sin)
    i.__mathlib_dbl_underflow                0x080068b0   Section        0  dunder.o(i.__mathlib_dbl_underflow)
    i.__read_errno                           0x080068c0   Section        0  errno.o(i.__read_errno)
    i.__scatterload_copy                     0x080068cc   Section       14  handlers.o(i.__scatterload_copy)
    i.__scatterload_null                     0x080068da   Section        2  handlers.o(i.__scatterload_null)
    i.__scatterload_zeroinit                 0x080068dc   Section       14  handlers.o(i.__scatterload_zeroinit)
    i.__set_errno                            0x080068ec   Section        0  errno.o(i.__set_errno)
    i._fp_digits                             0x080068f8   Section        0  printfa.o(i._fp_digits)
    _fp_digits                               0x080068f9   Thumb Code   318  printfa.o(i._fp_digits)
    i._printf_core                           0x08006a4c   Section        0  printfa.o(i._printf_core)
    _printf_core                             0x08006a4d   Thumb Code  1734  printfa.o(i._printf_core)
    i._printf_post_padding                   0x08007120   Section        0  printfa.o(i._printf_post_padding)
    _printf_post_padding                     0x08007121   Thumb Code    38  printfa.o(i._printf_post_padding)
    i._printf_pre_padding                    0x08007146   Section        0  printfa.o(i._printf_pre_padding)
    _printf_pre_padding                      0x08007147   Thumb Code    46  printfa.o(i._printf_pre_padding)
    i._sputc                                 0x08007174   Section        0  printfa.o(i._sputc)
    _sputc                                   0x08007175   Thumb Code    10  printfa.o(i._sputc)
    i.atcmd_ack_is                           0x0800717e   Section        0  sim800.o(i.atcmd_ack_is)
    i.atcmd_get_ack_section                  0x08007194   Section        0  sim800.o(i.atcmd_get_ack_section)
    i.atcmd_wait_respond                     0x08007200   Section        0  sim800.o(i.atcmd_wait_respond)
    i.atof                                   0x08007224   Section        0  atof.o(i.atof)
    i.auto_mount                             0x08007250   Section        0  ff.o(i.auto_mount)
    auto_mount                               0x08007251   Thumb Code   552  ff.o(i.auto_mount)
    i.beep_task                              0x08007488   Section        0  system.o(i.beep_task)
    i.beep_taskctrl                          0x08007548   Section        0  system.o(i.beep_taskctrl)
    i.beep_taskinit                          0x080075cc   Section        0  system.o(i.beep_taskinit)
    i.cfg_get_line                           0x080075e4   Section        0  sys_cfg.o(i.cfg_get_line)
    i.cfg_get_segment                        0x08007640   Section        0  sys_cfg.o(i.cfg_get_segment)
    i.check_flash_cfg                        0x08007690   Section        0  sys_cfg.o(i.check_flash_cfg)
    i.check_fs                               0x0800773c   Section        0  ff.o(i.check_fs)
    check_fs                                 0x0800773d   Thumb Code    98  ff.o(i.check_fs)
    i.check_ipnet_status                     0x080077ac   Section        0  sim800.o(i.check_ipnet_status)
    i.check_itarcker_cfg                     0x08007858   Section        0  sys_cfg.o(i.check_itarcker_cfg)
    i.check_sim_card                         0x08007994   Section        0  sim800.o(i.check_sim_card)
    i.chk_chr                                0x080079cc   Section        0  ff.o(i.chk_chr)
    chk_chr                                  0x080079cd   Thumb Code    24  ff.o(i.chk_chr)
    i.clust2sect                             0x080079e4   Section        0  ff.o(i.clust2sect)
    i.cos                                    0x08007a00   Section        0  cos.o(i.cos)
    i.cpy_cfg_to_flash                       0x08007aac   Section        0  sys_cfg.o(i.cpy_cfg_to_flash)
    i.create_chain                           0x08007bc0   Section        0  ff.o(i.create_chain)
    create_chain                             0x08007bc1   Thumb Code   182  ff.o(i.create_chain)
    i.create_name                            0x08007c78   Section        0  ff.o(i.create_name)
    create_name                              0x08007c79   Thumb Code   312  ff.o(i.create_name)
    i.delay_nus                              0x08007dc0   Section        0  systick.o(i.delay_nus)
    i.dir_find                               0x08007dd0   Section        0  ff.o(i.dir_find)
    dir_find                                 0x08007dd1   Thumb Code   118  ff.o(i.dir_find)
    i.dir_next                               0x08007e46   Section        0  ff.o(i.dir_next)
    dir_next                                 0x08007e47   Thumb Code   318  ff.o(i.dir_next)
    i.dir_register                           0x08007f84   Section        0  ff.o(i.dir_register)
    dir_register                             0x08007f85   Thumb Code   120  ff.o(i.dir_register)
    i.dir_seek                               0x08007ffc   Section        0  ff.o(i.dir_seek)
    dir_seek                                 0x08007ffd   Thumb Code   202  ff.o(i.dir_seek)
    i.disc_mount                             0x080080c8   Section        0  ff.o(i.disc_mount)
    i.disk_initialize                        0x080080f0   Section        0  diskio.o(i.disk_initialize)
    i.disk_ioctl                             0x0800813c   Section        0  diskio.o(i.disk_ioctl)
    i.disk_read                              0x080081a4   Section        0  diskio.o(i.disk_read)
    i.disk_status                            0x080081f8   Section        0  diskio.o(i.disk_status)
    i.disk_write                             0x0800820c   Section        0  diskio.o(i.disk_write)
    i.f_close                                0x08008260   Section        0  ff.o(i.f_close)
    i.f_getfree                              0x08008276   Section        0  ff.o(i.f_getfree)
    i.f_mount                                0x08008360   Section        0  ff.o(i.f_mount)
    i.f_open                                 0x0800838c   Section        0  ff.o(i.f_open)
    i.f_printf                               0x080084cc   Section        0  ff.o(i.f_printf)
    i.f_putc                                 0x0800868a   Section        0  ff.o(i.f_putc)
    i.f_puts                                 0x080086b4   Section        0  ff.o(i.f_puts)
    i.f_read                                 0x080086de   Section        0  ff.o(i.f_read)
    i.f_stat                                 0x080088b4   Section        0  ff.o(i.f_stat)
    i.f_sync                                 0x080088ee   Section        0  ff.o(i.f_sync)
    i.f_write                                0x0800897a   Section        0  ff.o(i.f_write)
    i.follow_path                            0x08008b8a   Section        0  ff.o(i.follow_path)
    follow_path                              0x08008b8b   Thumb Code   152  ff.o(i.follow_path)
    i.fputc                                  0x08008c24   Section        0  uart1.o(i.fputc)
    i.gSensor_taskinit                       0x08008c48   Section        0  gsensor.o(i.gSensor_taskinit)
    i.get_CSQ                                0x08008c64   Section        0  sim800.o(i.get_CSQ)
    i.get_cipstatus                          0x08008cc0   Section        0  sim800.o(i.get_cipstatus)
    i.get_cluster                            0x08008df4   Section        0  ff.o(i.get_cluster)
    get_cluster                              0x08008df5   Thumb Code   256  ff.o(i.get_cluster)
    i.get_fattime                            0x08008ef4   Section        0  diskio.o(i.get_fattime)
    i.get_fileinfo                           0x08008f30   Section        0  ff.o(i.get_fileinfo)
    get_fileinfo                             0x08008f31   Thumb Code   152  ff.o(i.get_fileinfo)
    i.get_gprs_status                        0x08008fc8   Section        0  sim800.o(i.get_gprs_status)
    i.get_gsensor_state                      0x08009034   Section        0  gsensor.o(i.get_gsensor_state)
    i.get_gsm_status                         0x0800903c   Section        0  sim800.o(i.get_gsm_status)
    i.get_spiflash_info                      0x080090a8   Section        0  w25xx.o(i.get_spiflash_info)
    i.gprs_task                              0x08009124   Section        0  sim800.o(i.gprs_task)
    i.gprs_taskctrl                          0x080096c4   Section        0  sim800.o(i.gprs_taskctrl)
    i.gprs_taskinit                          0x08009790   Section        0  sim800.o(i.gprs_taskinit)
    i.gps_comm_clr                           0x080097b0   Section        0  uart2.o(i.gps_comm_clr)
    i.gps_comm_get_len                       0x080097bc   Section        0  uart2.o(i.gps_comm_get_len)
    i.gps_comm_read                          0x080097f8   Section        0  uart2.o(i.gps_comm_read)
    i.gps_info_init                          0x08009820   Section        0  gps_receive_task.o(i.gps_info_init)
    i.gps_parse_proc                         0x08009848   Section        0  gps_receive_task.o(i.gps_parse_proc)
    i.gps_task                               0x080098ac   Section        0  gps_receive_task.o(i.gps_task)
    i.gps_taskctrl                           0x08009c24   Section        0  gps_receive_task.o(i.gps_taskctrl)
    i.gps_taskinit                           0x08009c3c   Section        0  gps_receive_task.o(i.gps_taskinit)
    i.gpspos_to_yeelinktype                  0x08009c5c   Section        0  yeelink.o(i.gpspos_to_yeelinktype)
    i.gsensor_task                           0x08009d68   Section        0  gsensor.o(i.gsensor_task)
    i.hw_io_ctrl                             0x08009de8   Section        0  system.o(i.hw_io_ctrl)
    i.hw_io_init                             0x08009ef0   Section        0  system.o(i.hw_io_init)
    i.iPos_clr                               0x0800a014   Section        0  yeelink.o(i.iPos_clr)
    i.iPos_get_num                           0x0800a034   Section        0  yeelink.o(i.iPos_get_num)
    i.iTrack_task                            0x0800a058   Section        0  let_us_go.o(i.iTrack_task)
    i.iTrack_taskctrl                        0x0800a0e8   Section        0  let_us_go.o(i.iTrack_taskctrl)
    i.iTrack_taskinit                        0x0800a118   Section        0  let_us_go.o(i.iTrack_taskinit)
    i.ischar                                 0x0800a124   Section        0  my_string.o(i.ischar)
    i.isdec                                  0x0800a14e   Section        0  my_string.o(i.isdec)
    i.isdecstring                            0x0800a160   Section        0  my_string.o(i.isdecstring)
    i.led_task                               0x0800a190   Section        0  system.o(i.led_task)
    i.led_taskctrl                           0x0800a3f0   Section        0  system.o(i.led_taskctrl)
    i.led_taskinit                           0x0800a4ec   Section        0  system.o(i.led_taskinit)
    i.load_sys_config                        0x0800a508   Section        0  sys_cfg.o(i.load_sys_config)
    i.main                                   0x0800a9ac   Section        0  main.o(i.main)
    i.mem_cmp                                0x0800ac80   Section        0  ff.o(i.mem_cmp)
    mem_cmp                                  0x0800ac81   Thumb Code    38  ff.o(i.mem_cmp)
    i.mem_cpy                                0x0800aca6   Section        0  ff.o(i.mem_cpy)
    mem_cpy                                  0x0800aca7   Thumb Code    26  ff.o(i.mem_cpy)
    i.mem_set                                0x0800acc0   Section        0  ff.o(i.mem_set)
    mem_set                                  0x0800acc1   Thumb Code    22  ff.o(i.mem_set)
    i.modem_poweroff_flow                    0x0800acd8   Section        0  sim800.o(i.modem_poweroff_flow)
    i.modem_poweron_flow                     0x0800ae18   Section        0  sim800.o(i.modem_poweron_flow)
    i.motion_analysis_by_gps                 0x0800b210   Section        0  let_us_go.o(i.motion_analysis_by_gps)
    i.move_window                            0x0800b3a8   Section        0  ff.o(i.move_window)
    move_window                              0x0800b3a9   Thumb Code   108  ff.o(i.move_window)
    i.myPWR_EnterSleepMode                   0x0800b414   Section        0  system.o(i.myPWR_EnterSleepMode)
    myPWR_EnterSleepMode                     0x0800b415   Thumb Code    82  system.o(i.myPWR_EnterSleepMode)
    i.nmea_get_frame                         0x0800b474   Section        0  gps_receive_task.o(i.nmea_get_frame)
    i.nmea_get_info                          0x0800b52c   Section        0  gps_receive_task.o(i.nmea_get_info)
    i.nmea_get_section                       0x0800b668   Section        0  gps_receive_task.o(i.nmea_get_section)
    i.now_position_to_xml                    0x0800b69c   Section        0  let_us_go.o(i.now_position_to_xml)
    i.pow                                    0x0800b7d0   Section        0  pow.o(i.pow)
    i.printf_strbf                           0x0800c1a8   Section        0  sim800.o(i.printf_strbf)
    i.put_cluster                            0x0800c1f0   Section        0  ff.o(i.put_cluster)
    put_cluster                              0x0800c1f1   Thumb Code   320  ff.o(i.put_cluster)
    i.remember_now_gps_pos                   0x0800c330   Section        0  let_us_go.o(i.remember_now_gps_pos)
    i.remove_chain                           0x0800c356   Section        0  ff.o(i.remove_chain)
    remove_chain                             0x0800c357   Thumb Code   104  ff.o(i.remove_chain)
    i.send_atcmd                             0x0800c3c0   Section        0  sim800.o(i.send_atcmd)
    i.set_gsensor_ctrl                       0x0800c454   Section        0  gsensor.o(i.set_gsensor_ctrl)
    i.sin                                    0x0800c4bc   Section        0  sin.o(i.sin)
    i.socket_open                            0x0800c56c   Section        0  sim800.o(i.socket_open)
    i.socket_query                           0x0800c618   Section        0  sim800.o(i.socket_query)
    i.socket_send                            0x0800c6c4   Section        0  sim800.o(i.socket_send)
    i.spi_port_init                          0x0800c744   Section        0  w25xx.o(i.spi_port_init)
    spi_port_init                            0x0800c745   Thumb Code   192  w25xx.o(i.spi_port_init)
    i.spi_readwrite                          0x0800c80c   Section        0  w25xx.o(i.spi_readwrite)
    spi_readwrite                            0x0800c80d   Thumb Code    52  w25xx.o(i.spi_readwrite)
    i.sqrt                                   0x0800c844   Section        0  sqrt.o(i.sqrt)
    i.sync                                   0x0800c890   Section        0  ff.o(i.sync)
    sync                                     0x0800c891   Thumb Code   116  ff.o(i.sync)
    i.sys_time                               0x0800c90c   Section        0  datetime.o(i.sys_time)
    i.syscfg_init                            0x0800c954   Section        0  system.o(i.syscfg_init)
    i.system_task                            0x0800c98c   Section        0  system.o(i.system_task)
    i.system_taskctrl                        0x0800cd90   Section        0  system.o(i.system_taskctrl)
    i.system_taskinit                        0x0800cf80   Section        0  system.o(i.system_taskinit)
    i.test_modem                             0x0800cfb0   Section        0  sim800.o(i.test_modem)
    i.tm2str                                 0x0800d008   Section        0  datetime.o(i.tm2str)
    i.uart3_clr                              0x0800d07c   Section        0  uart3.o(i.uart3_clr)
    i.uart3_fputc                            0x0800d0a8   Section        0  uart3.o(i.uart3_fputc)
    i.uart3_get_reclen                       0x0800d0cc   Section        0  uart3.o(i.uart3_get_reclen)
    i.uart3_printf                           0x0800d108   Section        0  uart3.o(i.uart3_printf)
    i.uart3_sendbf                           0x0800d140   Section        0  uart3.o(i.uart3_sendbf)
    i.validate                               0x0800d170   Section        0  ff.o(i.validate)
    validate                                 0x0800d171   Thumb Code    42  ff.o(i.validate)
    i.w25xx_get_device_id                    0x0800d19c   Section        0  w25xx.o(i.w25xx_get_device_id)
    i.w25xx_init                             0x0800d1a8   Section        0  w25xx.o(i.w25xx_init)
    i.w25xx_page_write                       0x0800d278   Section        0  w25xx.o(i.w25xx_page_write)
    i.w25xx_read                             0x0800d394   Section        0  w25xx.o(i.w25xx_read)
    i.w25xx_read_status                      0x0800d400   Section        0  w25xx.o(i.w25xx_read_status)
    w25xx_read_status                        0x0800d401   Thumb Code   108  w25xx.o(i.w25xx_read_status)
    i.yeelink_http_init                      0x0800d474   Section        0  yeelink.o(i.yeelink_http_init)
    i.yeelink_task                           0x0800d494   Section        0  yeelink.o(i.yeelink_task)
    i.yeelink_taskinit                       0x0800d6d8   Section        0  yeelink.o(i.yeelink_taskinit)
    .constdata                               0x0800d704   Section      200  main.o(.constdata)
    .constdata                               0x0800d7cc   Section      174  usb_desc.o(.constdata)
    .constdata                               0x0800d87a   Section      425  gpx_record_task.o(.constdata)
    .constdata                               0x0800da28   Section      136  pow.o(.constdata)
    bp                                       0x0800da28   Data          16  pow.o(.constdata)
    dp_h                                     0x0800da38   Data          16  pow.o(.constdata)
    dp_l                                     0x0800da48   Data          16  pow.o(.constdata)
    L                                        0x0800da58   Data          48  pow.o(.constdata)
    P                                        0x0800da88   Data          40  pow.o(.constdata)
    .constdata                               0x0800dab0   Section       48  cos_i.o(.constdata)
    C                                        0x0800dab0   Data          48  cos_i.o(.constdata)
    .constdata                               0x0800dae0   Section        8  qnan.o(.constdata)
    .constdata                               0x0800dae8   Section      200  rred.o(.constdata)
    pio2s                                    0x0800dae8   Data          48  rred.o(.constdata)
    twooverpi                                0x0800db18   Data         152  rred.o(.constdata)
    .constdata                               0x0800dbb0   Section       40  sin_i.o(.constdata)
    S                                        0x0800dbb0   Data          40  sin_i.o(.constdata)
    .constdata                               0x0800dbd8   Section       64  ctype_c.o(.constdata)
    .data                                    0x20000000   Section        1  main.o(.data)
    usb_device_onoff                         0x20000000   Data           1  main.o(.data)
    .data                                    0x20000004   Section       16  sys_cfg.o(.data)
    cfg_rd_p                                 0x20000010   Data           4  sys_cfg.o(.data)
    .data                                    0x20000014   Section       20  system_stm32f10x.o(.data)
    .data                                    0x20000028   Section       36  memory.o(.data)
    Offset                                   0x20000034   Data           4  memory.o(.data)
    Length                                   0x20000038   Data           4  memory.o(.data)
    W_Offset                                 0x2000003c   Data           4  memory.o(.data)
    W_Length                                 0x20000040   Data           4  memory.o(.data)
    .data                                    0x2000004c   Section      126  scsi_data.o(.data)
    .data                                    0x200000cc   Section       12  usb_bot.o(.data)
    .data                                    0x200000d8   Section       26  usb_desc.o(.data)
    .data                                    0x200000f4   Section       62  usb_istr.o(.data)
    .data                                    0x20000134   Section      148  usb_prop.o(.data)
    .data                                    0x200001c8   Section        7  usb_pwr.o(.data)
    .data                                    0x200001d0   Section        4  usb_core.o(.data)
    .data                                    0x200001d4   Section       20  usb_init.o(.data)
    .data                                    0x200001e8   Section        4  usb_int.o(.data)
    .data                                    0x200001ec   Section       24  diskio.o(.data)
    Stat                                     0x200001ec   Data           1  diskio.o(.data)
    .data                                    0x20000204   Section       10  ff.o(.data)
    FatFs                                    0x20000208   Data           4  ff.o(.data)
    Fsid                                     0x2000020c   Data           2  ff.o(.data)
    .data                                    0x20000210   Section       12  uart1.o(.data)
    RxBuffer                                 0x20000210   Data           2  uart1.o(.data)
    TxBuffer                                 0x20000212   Data           1  uart1.o(.data)
    RxCounter                                0x20000214   Data           4  uart1.o(.data)
    TxCounter                                0x20000218   Data           4  uart1.o(.data)
    .data                                    0x2000021c   Section       20  uart2.o(.data)
    rec_systick_mark                         0x2000021c   Data           4  uart2.o(.data)
    TxBuffer                                 0x20000220   Data           5  uart2.o(.data)
    TxCounter                                0x20000228   Data           4  uart2.o(.data)
    .data                                    0x20000230   Section       18  uart3.o(.data)
    rec_systick_mark                         0x2000023c   Data           4  uart3.o(.data)
    .data                                    0x20000242   Section       20  stm32f10x_rcc.o(.data)
    APBAHBPrescTable                         0x20000242   Data          16  stm32f10x_rcc.o(.data)
    ADCPrescTable                            0x20000252   Data           4  stm32f10x_rcc.o(.data)
    .data                                    0x20000258   Section       12  gps_receive_task.o(.data)
    task_t_mark                              0x20000260   Data           4  gps_receive_task.o(.data)
    .data                                    0x20000264   Section        4  let_us_go.o(.data)
    .data                                    0x20000268   Section        8  systick.o(.data)
    .data                                    0x20000270   Section       56  system.o(.data)
    system_task_t_mark                       0x20000278   Data           4  system.o(.data)
    system_taskstate                         0x20000290   Data           4  system.o(.data)
    adc_value_sum                            0x200002a4   Data           4  system.o(.data)
    .data                                    0x200002a8   Section        4  w25xx.o(.data)
    device_id                                0x200002a8   Data           4  w25xx.o(.data)
    .data                                    0x200002ac   Section       32  sim800.o(.data)
    task_t_mark                              0x200002c0   Data           4  sim800.o(.data)
    gprs_taskstate                           0x200002c4   Data           2  sim800.o(.data)
    pwronoff_t_mark                          0x200002c8   Data           4  sim800.o(.data)
    .data                                    0x200002cc   Section        4  yeelink.o(.data)
    .data                                    0x200002d0   Section       24  gsensor.o(.data)
    .data                                    0x200002e8   Section       24  gps_algorithm.o(.data)
    pi                                       0x200002e8   Data           8  gps_algorithm.o(.data)
    a                                        0x200002f0   Data           8  gps_algorithm.o(.data)
    ee                                       0x200002f8   Data           8  gps_algorithm.o(.data)
    .data                                    0x20000300   Section        4  gpx_record_task.o(.data)
    .data                                    0x20000304   Section        4  stdout.o(.data)
    .data                                    0x20000308   Section        4  errno.o(.data)
    _errno                                   0x20000308   Data           4  errno.o(.data)
    .bss                                     0x2000030c   Section       36  mass_mal.o(.bss)
    .bss                                     0x20000330   Section     4096  memory.o(.bss)
    .bss                                     0x20001330   Section      112  usb_bot.o(.bss)
    .bss                                     0x200013a0   Section       28  usb_init.o(.bss)
    .bss                                     0x200013bc   Section       56  ff.o(.bss)
    .bss                                     0x200013f4   Section      501  uart2.o(.bss)
    RxBuffer                                 0x200013f4   Data         501  uart2.o(.bss)
    .bss                                     0x200015e9   Section      401  uart3.o(.bss)
    .bss                                     0x20001780   Section      910  gps_receive_task.o(.bss)
    .bss                                     0x20001b10   Section      296  let_us_go.o(.bss)
    pos_msg                                  0x20001b10   Data         100  let_us_go.o(.bss)
    .bss                                     0x20001c38   Section       76  system.o(.bss)
    .bss                                     0x20001c84   Section       68  datetime.o(.bss)
    time_str                                 0x20001c84   Data          40  datetime.o(.bss)
    local_time                               0x20001cac   Data          28  datetime.o(.bss)
    .bss                                     0x20001cc8   Section      132  sim800.o(.bss)
    .bss                                     0x20001d50   Section     1627  yeelink.o(.bss)
    .bss                                     0x200023ac   Section       32  gsensor.o(.bss)
    .bss                                     0x200023cc   Section     4132  gpx_record_task.o(.bss)
    STACK                                    0x200033f0   Section     4608  startup_stm32f10x_hd.o(STACK)

    Global Symbols

    Symbol Name                              Value     Ov Type        Size  Object(Section)

    BuildAttributes$$THM_ISAv4$P$D$K$B$S$PE$A:L22UL41UL21$X:L11$S22US41US21$IEEE1$IW$USESV6$~STKCKD$USESV7$~SHL$OTIME$ROPI$IEEEX$EBA8$MICROLIB$REQ8$PRES8$EABIv2 0x00000000   Number         0  anon$$obj.o ABSOLUTE
    __ARM_use_no_argv                        0x00000000   Number         0  main.o ABSOLUTE
    _printf_a                                0x00000000   Number         0  stubs.o ABSOLUTE
    _printf_c                                0x00000000   Number         0  stubs.o ABSOLUTE
    _printf_charcount                        0x00000000   Number         0  stubs.o ABSOLUTE
    _printf_d                                0x00000000   Number         0  stubs.o ABSOLUTE
    _printf_e                                0x00000000   Number         0  stubs.o ABSOLUTE
    _printf_f                                0x00000000   Number         0  stubs.o ABSOLUTE
    _printf_flags                            0x00000000   Number         0  stubs.o ABSOLUTE
    _printf_fp_dec                           0x00000000   Number         0  stubs.o ABSOLUTE
    _printf_fp_hex                           0x00000000   Number         0  stubs.o ABSOLUTE
    _printf_g                                0x00000000   Number         0  stubs.o ABSOLUTE
    _printf_i                                0x00000000   Number         0  stubs.o ABSOLUTE
    _printf_int_dec                          0x00000000   Number         0  stubs.o ABSOLUTE
    _printf_l                                0x00000000   Number         0  stubs.o ABSOLUTE
    _printf_lc                               0x00000000   Number         0  stubs.o ABSOLUTE
    _printf_ll                               0x00000000   Number         0  stubs.o ABSOLUTE
    _printf_lld                              0x00000000   Number         0  stubs.o ABSOLUTE
    _printf_lli                              0x00000000   Number         0  stubs.o ABSOLUTE
    _printf_llo                              0x00000000   Number         0  stubs.o ABSOLUTE
    _printf_llu                              0x00000000   Number         0  stubs.o ABSOLUTE
    _printf_llx                              0x00000000   Number         0  stubs.o ABSOLUTE
    _printf_longlong_dec                     0x00000000   Number         0  stubs.o ABSOLUTE
    _printf_longlong_hex                     0x00000000   Number         0  stubs.o ABSOLUTE
    _printf_longlong_oct                     0x00000000   Number         0  stubs.o ABSOLUTE
    _printf_ls                               0x00000000   Number         0  stubs.o ABSOLUTE
    _printf_mbtowc                           0x00000000   Number         0  stubs.o ABSOLUTE
    _printf_n                                0x00000000   Number         0  stubs.o ABSOLUTE
    _printf_o                                0x00000000   Number         0  stubs.o ABSOLUTE
    _printf_p                                0x00000000   Number         0  stubs.o ABSOLUTE
    _printf_percent                          0x00000000   Number         0  stubs.o ABSOLUTE
    _printf_pre_padding                      0x00000000   Number         0  stubs.o ABSOLUTE
    _printf_return_value                     0x00000000   Number         0  stubs.o ABSOLUTE
    _printf_s                                0x00000000   Number         0  stubs.o ABSOLUTE
    _printf_sizespec                         0x00000000   Number         0  stubs.o ABSOLUTE
    _printf_str                              0x00000000   Number         0  stubs.o ABSOLUTE
    _printf_truncate_signed                  0x00000000   Number         0  stubs.o ABSOLUTE
    _printf_truncate_unsigned                0x00000000   Number         0  stubs.o ABSOLUTE
    _printf_u                                0x00000000   Number         0  stubs.o ABSOLUTE
    _printf_wc                               0x00000000   Number         0  stubs.o ABSOLUTE
    _printf_wctomb                           0x00000000   Number         0  stubs.o ABSOLUTE
    _printf_widthprec                        0x00000000   Number         0  stubs.o ABSOLUTE
    _printf_x                                0x00000000   Number         0  stubs.o ABSOLUTE
    __Vectors_Size                           0x00000130   Number         0  startup_stm32f10x_hd.o ABSOLUTE
    __Vectors                                0x08000000   Data           4  startup_stm32f10x_hd.o(RESET)
    __Vectors_End                            0x08000130   Data           0  startup_stm32f10x_hd.o(RESET)
    __main                                   0x08000131   Thumb Code     0  entry.o(.ARM.Collect$$$$00000000)
    _main_stk                                0x08000131   Thumb Code     0  entry2.o(.ARM.Collect$$$$00000001)
    _main_scatterload                        0x08000135   Thumb Code     0  entry5.o(.ARM.Collect$$$$00000004)
    __main_after_scatterload                 0x08000139   Thumb Code     0  entry5.o(.ARM.Collect$$$$00000004)
    _main_init                               0x08000139   Thumb Code     0  entry7.o(.ARM.Collect$$$$00000007)
    Reset_Handler                            0x08000145   Thumb Code     8  startup_stm32f10x_hd.o(.text)
    ADC1_2_IRQHandler                        0x0800015f   Thumb Code     0  startup_stm32f10x_hd.o(.text)
    ADC3_IRQHandler                          0x0800015f   Thumb Code     0  startup_stm32f10x_hd.o(.text)
    CAN1_RX1_IRQHandler                      0x0800015f   Thumb Code     0  startup_stm32f10x_hd.o(.text)
    CAN1_SCE_IRQHandler                      0x0800015f   Thumb Code     0  startup_stm32f10x_hd.o(.text)
    DMA1_Channel1_IRQHandler                 0x0800015f   Thumb Code     0  startup_stm32f10x_hd.o(.text)
    DMA1_Channel2_IRQHandler                 0x0800015f   Thumb Code     0  startup_stm32f10x_hd.o(.text)
    DMA1_Channel3_IRQHandler                 0x0800015f   Thumb Code     0  startup_stm32f10x_hd.o(.text)
    DMA1_Channel4_IRQHandler                 0x0800015f   Thumb Code     0  startup_stm32f10x_hd.o(.text)
    DMA1_Channel5_IRQHandler                 0x0800015f   Thumb Code     0  startup_stm32f10x_hd.o(.text)
    DMA1_Channel6_IRQHandler                 0x0800015f   Thumb Code     0  startup_stm32f10x_hd.o(.text)
    DMA1_Channel7_IRQHandler                 0x0800015f   Thumb Code     0  startup_stm32f10x_hd.o(.text)
    DMA2_Channel1_IRQHandler                 0x0800015f   Thumb Code     0  startup_stm32f10x_hd.o(.text)
    DMA2_Channel2_IRQHandler                 0x0800015f   Thumb Code     0  startup_stm32f10x_hd.o(.text)
    DMA2_Channel3_IRQHandler                 0x0800015f   Thumb Code     0  startup_stm32f10x_hd.o(.text)
    DMA2_Channel4_5_IRQHandler               0x0800015f   Thumb Code     0  startup_stm32f10x_hd.o(.text)
    EXTI15_10_IRQHandler                     0x0800015f   Thumb Code     0  startup_stm32f10x_hd.o(.text)
    EXTI1_IRQHandler                         0x0800015f   Thumb Code     0  startup_stm32f10x_hd.o(.text)
    EXTI2_IRQHandler                         0x0800015f   Thumb Code     0  startup_stm32f10x_hd.o(.text)
    EXTI3_IRQHandler                         0x0800015f   Thumb Code     0  startup_stm32f10x_hd.o(.text)
    EXTI4_IRQHandler                         0x0800015f   Thumb Code     0  startup_stm32f10x_hd.o(.text)
    EXTI9_5_IRQHandler                       0x0800015f   Thumb Code     0  startup_stm32f10x_hd.o(.text)
    FLASH_IRQHandler                         0x0800015f   Thumb Code     0  startup_stm32f10x_hd.o(.text)
    FSMC_IRQHandler                          0x0800015f   Thumb Code     0  startup_stm32f10x_hd.o(.text)
    I2C1_ER_IRQHandler                       0x0800015f   Thumb Code     0  startup_stm32f10x_hd.o(.text)
    I2C1_EV_IRQHandler                       0x0800015f   Thumb Code     0  startup_stm32f10x_hd.o(.text)
    I2C2_ER_IRQHandler                       0x0800015f   Thumb Code     0  startup_stm32f10x_hd.o(.text)
    I2C2_EV_IRQHandler                       0x0800015f   Thumb Code     0  startup_stm32f10x_hd.o(.text)
    PVD_IRQHandler                           0x0800015f   Thumb Code     0  startup_stm32f10x_hd.o(.text)
    RCC_IRQHandler                           0x0800015f   Thumb Code     0  startup_stm32f10x_hd.o(.text)
    RTCAlarm_IRQHandler                      0x0800015f   Thumb Code     0  startup_stm32f10x_hd.o(.text)
    RTC_IRQHandler                           0x0800015f   Thumb Code     0  startup_stm32f10x_hd.o(.text)
    SPI1_IRQHandler                          0x0800015f   Thumb Code     0  startup_stm32f10x_hd.o(.text)
    SPI2_IRQHandler                          0x0800015f   Thumb Code     0  startup_stm32f10x_hd.o(.text)
    SPI3_IRQHandler                          0x0800015f   Thumb Code     0  startup_stm32f10x_hd.o(.text)
    TAMPER_IRQHandler                        0x0800015f   Thumb Code     0  startup_stm32f10x_hd.o(.text)
    TIM1_BRK_IRQHandler                      0x0800015f   Thumb Code     0  startup_stm32f10x_hd.o(.text)
    TIM1_CC_IRQHandler                       0x0800015f   Thumb Code     0  startup_stm32f10x_hd.o(.text)
    TIM1_TRG_COM_IRQHandler                  0x0800015f   Thumb Code     0  startup_stm32f10x_hd.o(.text)
    TIM1_UP_IRQHandler                       0x0800015f   Thumb Code     0  startup_stm32f10x_hd.o(.text)
    TIM2_IRQHandler                          0x0800015f   Thumb Code     0  startup_stm32f10x_hd.o(.text)
    TIM3_IRQHandler                          0x0800015f   Thumb Code     0  startup_stm32f10x_hd.o(.text)
    TIM4_IRQHandler                          0x0800015f   Thumb Code     0  startup_stm32f10x_hd.o(.text)
    TIM5_IRQHandler                          0x0800015f   Thumb Code     0  startup_stm32f10x_hd.o(.text)
    TIM6_IRQHandler                          0x0800015f   Thumb Code     0  startup_stm32f10x_hd.o(.text)
    TIM7_IRQHandler                          0x0800015f   Thumb Code     0  startup_stm32f10x_hd.o(.text)
    TIM8_BRK_IRQHandler                      0x0800015f   Thumb Code     0  startup_stm32f10x_hd.o(.text)
    TIM8_CC_IRQHandler                       0x0800015f   Thumb Code     0  startup_stm32f10x_hd.o(.text)
    TIM8_TRG_COM_IRQHandler                  0x0800015f   Thumb Code     0  startup_stm32f10x_hd.o(.text)
    TIM8_UP_IRQHandler                       0x0800015f   Thumb Code     0  startup_stm32f10x_hd.o(.text)
    UART4_IRQHandler                         0x0800015f   Thumb Code     0  startup_stm32f10x_hd.o(.text)
    UART5_IRQHandler                         0x0800015f   Thumb Code     0  startup_stm32f10x_hd.o(.text)
    USBWakeUp_IRQHandler                     0x0800015f   Thumb Code     0  startup_stm32f10x_hd.o(.text)
    WWDG_IRQHandler                          0x0800015f   Thumb Code     0  startup_stm32f10x_hd.o(.text)
    rad                                      0x08000169   Thumb Code    34  gps_algorithm.o(.text)
    DistanceCalcs                            0x0800018b   Thumb Code   310  gps_algorithm.o(.text)
    transform                                0x08000869   Thumb Code   512  gps_algorithm.o(.text)
    gpx_record_taskinit                      0x08000a69   Thumb Code    12  gpx_record_task.o(.text)
    gpx_wr_fl_end                            0x08000a75   Thumb Code    54  gpx_record_task.o(.text)
    gpx_record_taskctrl                      0x08000aab   Thumb Code    36  gpx_record_task.o(.text)
    gpx_wr_fl_trkpt                          0x08000acf   Thumb Code    46  gpx_record_task.o(.text)
    gpx_wr_fl_header                         0x08000afd   Thumb Code    26  gpx_record_task.o(.text)
    gpx_creat_fl                             0x08000b17   Thumb Code    82  gpx_record_task.o(.text)
    gpx_record_task                          0x08000b69   Thumb Code   268  gpx_record_task.o(.text)
    gpx_file_save                            0x08000c75   Thumb Code    18  gpx_record_task.o(.text)
    gpx_file_saveexit                        0x08000c87   Thumb Code    16  gpx_record_task.o(.text)
    abs                                      0x08000d79   Thumb Code    12  siabs.o(.text)
    __aeabi_memcpy                           0x08000d85   Thumb Code    36  memcpya.o(.text)
    __aeabi_memcpy4                          0x08000d85   Thumb Code     0  memcpya.o(.text)
    __aeabi_memcpy8                          0x08000d85   Thumb Code     0  memcpya.o(.text)
    __aeabi_memset                           0x08000da9   Thumb Code    14  memseta.o(.text)
    __aeabi_memset4                          0x08000da9   Thumb Code     0  memseta.o(.text)
    __aeabi_memset8                          0x08000da9   Thumb Code     0  memseta.o(.text)
    __aeabi_memclr                           0x08000db7   Thumb Code     4  memseta.o(.text)
    __aeabi_memclr4                          0x08000db7   Thumb Code     0  memseta.o(.text)
    __aeabi_memclr8                          0x08000db7   Thumb Code     0  memseta.o(.text)
    _memset$wrapper                          0x08000dbb   Thumb Code    20  memseta.o(.text)
    strcat                                   0x08000dcf   Thumb Code    28  strcat.o(.text)
    strstr                                   0x08000deb   Thumb Code    44  strstr.o(.text)
    strlen                                   0x08000e17   Thumb Code    16  strlen.o(.text)
    strcmp                                   0x08000e27   Thumb Code    28  strcmp.o(.text)
    strcpy                                   0x08000e43   Thumb Code    18  strcpy.o(.text)
    __aeabi_fmul                             0x08000e55   Thumb Code   108  fmul.o(.text)
    __aeabi_fdiv                             0x08000ec1   Thumb Code   128  fdiv.o(.text)
    __aeabi_dadd                             0x08000f41   Thumb Code   318  dadd.o(.text)
    __aeabi_dsub                             0x0800107f   Thumb Code     6  dadd.o(.text)
    __aeabi_drsub                            0x08001085   Thumb Code     6  dadd.o(.text)
    __aeabi_dmul                             0x0800108b   Thumb Code   226  dmul.o(.text)
    __aeabi_ddiv                             0x0800116d   Thumb Code   222  ddiv.o(.text)
    __aeabi_i2f                              0x0800124b   Thumb Code    18  fflti.o(.text)
    __aeabi_ui2f                             0x0800125d   Thumb Code    10  ffltui.o(.text)
    __aeabi_f2iz                             0x08001267   Thumb Code    50  ffixi.o(.text)
    __aeabi_d2iz                             0x08001299   Thumb Code    62  dfixi.o(.text)
    __aeabi_f2d                              0x080012d7   Thumb Code    44  f2d.o(.text)
    __aeabi_cdcmpeq                          0x08001305   Thumb Code     0  cdcmple.o(.text)
    __aeabi_cdcmple                          0x08001305   Thumb Code    38  cdcmple.o(.text)
    __aeabi_cdrcmple                         0x0800132d   Thumb Code    38  cdrcmple.o(.text)
    __aeabi_d2f                              0x08001355   Thumb Code    56  d2f.o(.text)
    __aeabi_cfrcmple                         0x0800138d   Thumb Code    20  cfrcmple.o(.text)
    __aeabi_uidiv                            0x080013a1   Thumb Code     0  uidiv.o(.text)
    __aeabi_uidivmod                         0x080013a1   Thumb Code    44  uidiv.o(.text)
    __aeabi_uldivmod                         0x080013cd   Thumb Code   102  uldiv.o(.text)
    __aeabi_llsl                             0x08001433   Thumb Code    30  llshl.o(.text)
    _ll_shift_l                              0x08001433   Thumb Code     0  llshl.o(.text)
    __aeabi_llsr                             0x08001451   Thumb Code    32  llushr.o(.text)
    _ll_ushift_r                             0x08001451   Thumb Code     0  llushr.o(.text)
    __aeabi_lasr                             0x08001471   Thumb Code    36  llsshr.o(.text)
    _ll_sshift_r                             0x08001471   Thumb Code     0  llsshr.o(.text)
    __strtod_int                             0x080014cb   Thumb Code    86  strtod.o(.text)
    __I$use$fp                               0x0800152d   Thumb Code     0  iusefp.o(.text)
    _float_round                             0x0800152d   Thumb Code    18  fepilogue.o(.text)
    _float_epilogue                          0x0800153f   Thumb Code    94  fepilogue.o(.text)
    _double_round                            0x0800159d   Thumb Code    26  depilogue.o(.text)
    _double_epilogue                         0x080015b7   Thumb Code   168  depilogue.o(.text)
    __ARM_scalbn                             0x0800165f   Thumb Code    46  dscalb.o(.text)
    scalbn                                   0x0800165f   Thumb Code     0  dscalb.o(.text)
    _dsqrt                                   0x0800168d   Thumb Code   160  dsqrt.o(.text)
    __aeabi_i2d                              0x0800172d   Thumb Code    34  dflti.o(.text)
    __aeabi_d2ulz                            0x0800174f   Thumb Code    48  dfixul.o(.text)
    __scatterload                            0x08001781   Thumb Code    28  init.o(.text)
    __scatterload_rt2                        0x08001781   Thumb Code     0  init.o(.text)
    isspace                                  0x080017a5   Thumb Code    10  isspace_c.o(.text)
    _scanf_real                              0x080018bf   Thumb Code     0  scanf_fp.o(.text)
    _scanf_really_real                       0x080018bf   Thumb Code   566  scanf_fp.o(.text)
    _sgetc                                   0x08001b01   Thumb Code    30  _sgetc.o(.text)
    _sbackspace                              0x08001b1f   Thumb Code    34  _sgetc.o(.text)
    __aeabi_ui2d                             0x08001b41   Thumb Code    26  dfltui.o(.text)
    __ctype_lookup                           0x08001b5d   Thumb Code    34  ctype_c.o(.text)
    __aeabi_ul2d                             0x08001b85   Thumb Code    24  dfltul.o(.text)
    __decompress                             0x08001b9d   Thumb Code     0  __dczerorl2.o(.text)
    __decompress1                            0x08001b9d   Thumb Code    92  __dczerorl2.o(.text)
    ADC_Cmd                                  0x08001bf9   Thumb Code    22  stm32f10x_adc.o(i.ADC_Cmd)
    ADC_Configuration                        0x08001c11   Thumb Code    98  system.o(i.ADC_Configuration)
    ADC_GetConversionValue                   0x08001c7d   Thumb Code     8  stm32f10x_adc.o(i.ADC_GetConversionValue)
    ADC_GetFlagStatus                        0x08001c85   Thumb Code    18  stm32f10x_adc.o(i.ADC_GetFlagStatus)
    ADC_Init                                 0x08001c99   Thumb Code    70  stm32f10x_adc.o(i.ADC_Init)
    ADC_RegularChannelConfig                 0x08001ce9   Thumb Code   184  stm32f10x_adc.o(i.ADC_RegularChannelConfig)
    ADC_SoftwareStartConvCmd                 0x08001da1   Thumb Code    22  stm32f10x_adc.o(i.ADC_SoftwareStartConvCmd)
    ADC_task                                 0x08001db9   Thumb Code   512  system.o(i.ADC_task)
    ADC_taskctrl                             0x08002025   Thumb Code    12  system.o(i.ADC_taskctrl)
    ADC_taskinit                             0x08002035   Thumb Code    30  system.o(i.ADC_taskinit)
    Bot_Abort                                0x0800205d   Thumb Code    64  usb_bot.o(i.Bot_Abort)
    BusFault_Handler                         0x0800209d   Thumb Code     4  stm32f10x_it.o(i.BusFault_Handler)
    ByteSwap                                 0x080020a1   Thumb Code    12  usb_regs.o(i.ByteSwap)
    CBW_Decode                               0x080020ad   Thumb Code   676  usb_bot.o(i.CBW_Decode)
    CTR_HP                                   0x08002371   Thumb Code   174  usb_int.o(i.CTR_HP)
    CTR_LP                                   0x08002439   Thumb Code   612  usb_int.o(i.CTR_LP)
    ClearDTOG_RX                             0x080026c1   Thumb Code    52  usb_regs.o(i.ClearDTOG_RX)
    ClearDTOG_TX                             0x080026f9   Thumb Code    52  usb_regs.o(i.ClearDTOG_TX)
    Clear_Status_Out                         0x08002731   Thumb Code    36  usb_regs.o(i.Clear_Status_Out)
    DebugMon_Handler                         0x08002b71   Thumb Code     2  stm32f10x_it.o(i.DebugMon_Handler)
    DecStr2Int                               0x08002b73   Thumb Code   292  my_string.o(i.DecStr2Int)
    EP1_IN_Callback                          0x08002c97   Thumb Code     8  usb_endp.o(i.EP1_IN_Callback)
    EP2_OUT_Callback                         0x08002c9f   Thumb Code     8  usb_endp.o(i.EP2_OUT_Callback)
    EXTI0_IRQHandler                         0x08002ca9   Thumb Code    36  gsensor.o(i.EXTI0_IRQHandler)
    EXTI_ClearFlag                           0x08002cd5   Thumb Code     6  stm32f10x_exti.o(i.EXTI_ClearFlag)
    EXTI_Configuration                       0x08002ce1   Thumb Code    40  gsensor.o(i.EXTI_Configuration)
    EXTI_GetITStatus                         0x08002d09   Thumb Code    34  stm32f10x_exti.o(i.EXTI_GetITStatus)
    EXTI_Init                                0x08002d35   Thumb Code   160  stm32f10x_exti.o(i.EXTI_Init)
    FLASH_ErasePage                          0x08002de1   Thumb Code    72  stm32f10x_flash.o(i.FLASH_ErasePage)
    FLASH_GetBank1Status                     0x08002e2d   Thumb Code    50  stm32f10x_flash.o(i.FLASH_GetBank1Status)
    FLASH_Lock                               0x08002e65   Thumb Code    14  stm32f10x_flash.o(i.FLASH_Lock)
    FLASH_ProgramWord                        0x08002e79   Thumb Code    96  stm32f10x_flash.o(i.FLASH_ProgramWord)
    FLASH_Unlock                             0x08002edd   Thumb Code    12  stm32f10x_flash.o(i.FLASH_Unlock)
    FLASH_WaitForLastOperation               0x08002ef5   Thumb Code    38  stm32f10x_flash.o(i.FLASH_WaitForLastOperation)
    GGA_Parse                                0x08002f1d   Thumb Code   138  gps_receive_task.o(i.GGA_Parse)
    GLL_Parse                                0x08002fad   Thumb Code    52  gps_receive_task.o(i.GLL_Parse)
    GPIO_Configuration                       0x08002fe5   Thumb Code    40  gsensor.o(i.GPIO_Configuration)
    GPIO_EXTILineConfig                      0x08003015   Thumb Code    60  stm32f10x_gpio.o(i.GPIO_EXTILineConfig)
    GPIO_Init                                0x08003055   Thumb Code   274  stm32f10x_gpio.o(i.GPIO_Init)
    GPIO_ReadInputDataBit                    0x08003167   Thumb Code    18  stm32f10x_gpio.o(i.GPIO_ReadInputDataBit)
    GPIO_ResetBits                           0x08003179   Thumb Code     4  stm32f10x_gpio.o(i.GPIO_ResetBits)
    GPIO_SetBits                             0x0800317d   Thumb Code     4  stm32f10x_gpio.o(i.GPIO_SetBits)
    GSA_Parse                                0x08003181   Thumb Code    58  gps_receive_task.o(i.GSA_Parse)
    GSV_Parse                                0x080031bb   Thumb Code    44  gps_receive_task.o(i.GSV_Parse)
    GetEPRxAddr                              0x080031e9   Thumb Code    26  usb_regs.o(i.GetEPRxAddr)
    GetEPRxCount                             0x0800320d   Thumb Code    28  usb_regs.o(i.GetEPRxCount)
    GetEPTxAddr                              0x08003231   Thumb Code    22  usb_regs.o(i.GetEPTxAddr)
    GetGpsState                              0x08003251   Thumb Code    10  gps_receive_task.o(i.GetGpsState)
    GetModemMode                             0x08003261   Thumb Code    10  sim800.o(i.GetModemMode)
    GetModemState                            0x08003271   Thumb Code    10  sim800.o(i.GetModemState)
    GetSysTick_10Ms                          0x08003281   Thumb Code     6  systick.o(i.GetSysTick_10Ms)
    GetSysTick_Sec                           0x0800328d   Thumb Code     6  systick.o(i.GetSysTick_Sec)
    Get_Max_Lun                              0x08003299   Thumb Code    20  usb_prop.o(i.Get_Max_Lun)
    Get_SerialNum                            0x080032b5   Thumb Code    44  hw_config.o(i.Get_SerialNum)
    HardFault_Handler                        0x080032f1   Thumb Code     8  stm32f10x_it.o(i.HardFault_Handler)
    HexToChar                                0x080032f9   Thumb Code    28  gps_receive_task.o(i.HexToChar)
    I2C_Configuration                        0x08003355   Thumb Code    38  sof_iic.o(i.I2C_Configuration)
    I2C_ReadByte                             0x080033c1   Thumb Code   130  sof_iic.o(i.I2C_ReadByte)
    I2C_SDA_IN                               0x080034a9   Thumb Code    30  sof_iic.o(i.I2C_SDA_IN)
    I2C_SDA_OUT                              0x080034cd   Thumb Code    30  sof_iic.o(i.I2C_SDA_OUT)
    I2C_WriteByte                            0x0800364d   Thumb Code    78  sof_iic.o(i.I2C_WriteByte)
    IWDG_Configuration                       0x080036a9   Thumb Code    40  main.o(i.IWDG_Configuration)
    IWDG_Enable                              0x080036d1   Thumb Code    10  stm32f10x_iwdg.o(i.IWDG_Enable)
    IWDG_ReloadCounter                       0x080036e1   Thumb Code    10  stm32f10x_iwdg.o(i.IWDG_ReloadCounter)
    IWDG_SetPrescaler                        0x080036f1   Thumb Code     6  stm32f10x_iwdg.o(i.IWDG_SetPrescaler)
    IWDG_SetReload                           0x080036fd   Thumb Code     6  stm32f10x_iwdg.o(i.IWDG_SetReload)
    IWDG_WriteAccessCmd                      0x08003709   Thumb Code     6  stm32f10x_iwdg.o(i.IWDG_WriteAccessCmd)
    In0_Process                              0x08003715   Thumb Code    98  usb_core.o(i.In0_Process)
    IsLeapYear                               0x080037c3   Thumb Code    44  datetime.o(i.IsLeapYear)
    Led_RW_OFF                               0x080037ef   Thumb Code    14  hw_config.o(i.Led_RW_OFF)
    Led_RW_ON                                0x080037fd   Thumb Code    14  hw_config.o(i.Led_RW_ON)
    MAL_Config                               0x0800380b   Thumb Code    10  hw_config.o(i.MAL_Config)
    MAL_GetStatus                            0x08003815   Thumb Code    30  mass_mal.o(i.MAL_GetStatus)
    MAL_Init                                 0x08003835   Thumb Code   200  mass_mal.o(i.MAL_Init)
    MAL_Read                                 0x08003911   Thumb Code    46  mass_mal.o(i.MAL_Read)
    MAL_Write                                0x0800393f   Thumb Code    46  mass_mal.o(i.MAL_Write)
    MASS_Data_Setup                          0x0800396d   Thumb Code    86  usb_prop.o(i.MASS_Data_Setup)
    MASS_GetConfigDescriptor                 0x080039cd   Thumb Code    14  usb_prop.o(i.MASS_GetConfigDescriptor)
    MASS_GetDeviceDescriptor                 0x080039e1   Thumb Code    14  usb_prop.o(i.MASS_GetDeviceDescriptor)
    MASS_GetStringDescriptor                 0x080039f5   Thumb Code    32  usb_prop.o(i.MASS_GetStringDescriptor)
    MASS_Get_Interface_Setting               0x08003a1d   Thumb Code    22  usb_prop.o(i.MASS_Get_Interface_Setting)
    MASS_NoData_Setup                        0x08003a35   Thumb Code    76  usb_prop.o(i.MASS_NoData_Setup)
    MASS_Reset                               0x08003a91   Thumb Code   208  usb_prop.o(i.MASS_Reset)
    MASS_Status_In                           0x08003b81   Thumb Code     2  usb_prop.o(i.MASS_Status_In)
    MASS_Status_Out                          0x08003b83   Thumb Code     2  usb_prop.o(i.MASS_Status_Out)
    MASS_init                                0x08003b85   Thumb Code    30  usb_prop.o(i.MASS_init)
    MBA220init                               0x08003bad   Thumb Code   132  gsensor.o(i.MBA220init)
    Mass_Storage_ClearFeature                0x08003c31   Thumb Code    20  usb_prop.o(i.Mass_Storage_ClearFeature)
    Mass_Storage_In                          0x08003c4d   Thumb Code   100  usb_bot.o(i.Mass_Storage_In)
    Mass_Storage_Out                         0x08003cc1   Thumb Code   118  usb_bot.o(i.Mass_Storage_Out)
    Mass_Storage_SetConfiguration            0x08003d51   Thumb Code    36  usb_prop.o(i.Mass_Storage_SetConfiguration)
    Mass_Storage_SetDeviceAddress            0x08003d81   Thumb Code     8  usb_prop.o(i.Mass_Storage_SetDeviceAddress)
    MemManage_Handler                        0x08003d8d   Thumb Code     4  stm32f10x_it.o(i.MemManage_Handler)
    NMI_Handler                              0x08003d91   Thumb Code     2  stm32f10x_it.o(i.NMI_Handler)
    NOP_Process                              0x08003d93   Thumb Code     2  usb_core.o(i.NOP_Process)
    NVIC_Configuration                       0x08003d95   Thumb Code    34  gsensor.o(i.NVIC_Configuration)
    NVIC_Init                                0x08003db9   Thumb Code   118  misc.o(i.NVIC_Init)
    NVIC_PriorityGroupConfig                 0x08003e3d   Thumb Code    10  misc.o(i.NVIC_PriorityGroupConfig)
    Out0_Process                             0x08003f95   Thumb Code    70  usb_core.o(i.Out0_Process)
    PMAToUserBufferCopy                      0x08003fe5   Thumb Code    32  usb_mem.o(i.PMAToUserBufferCopy)
    PWR_EnterSTOPMode                        0x08004009   Thumb Code    62  stm32f10x_pwr.o(i.PWR_EnterSTOPMode)
    PendSV_Handler                           0x08004051   Thumb Code     2  stm32f10x_it.o(i.PendSV_Handler)
    Post0_Process                            0x08004055   Thumb Code    56  usb_core.o(i.Post0_Process)
    PowerOn                                  0x0800409d   Thumb Code    64  usb_pwr.o(i.PowerOn)
    RCC_APB1PeriphClockCmd                   0x080040ed   Thumb Code    26  stm32f10x_rcc.o(i.RCC_APB1PeriphClockCmd)
    RCC_APB1PeriphResetCmd                   0x0800410d   Thumb Code    26  stm32f10x_rcc.o(i.RCC_APB1PeriphResetCmd)
    RCC_APB2PeriphClockCmd                   0x0800412d   Thumb Code    26  stm32f10x_rcc.o(i.RCC_APB2PeriphClockCmd)
    RCC_APB2PeriphResetCmd                   0x0800414d   Thumb Code    26  stm32f10x_rcc.o(i.RCC_APB2PeriphResetCmd)
    RCC_ClearFlag                            0x0800416d   Thumb Code    14  stm32f10x_rcc.o(i.RCC_ClearFlag)
    RCC_GetClocksFreq                        0x08004181   Thumb Code   192  stm32f10x_rcc.o(i.RCC_GetClocksFreq)
    RCC_GetFlagStatus                        0x08004255   Thumb Code    56  stm32f10x_rcc.o(i.RCC_GetFlagStatus)
    RCC_USBCLKConfig                         0x08004291   Thumb Code     6  stm32f10x_rcc.o(i.RCC_USBCLKConfig)
    RMC_Parse                                0x0800429d   Thumb Code   654  gps_receive_task.o(i.RMC_Parse)
    Read_Memory                              0x08004539   Thumb Code   232  memory.o(i.Read_Memory)
    SCSI_Address_Management                  0x08004645   Thumb Code   126  usb_scsi.o(i.SCSI_Address_Management)
    SCSI_Format_Cmd                          0x080046d1   Thumb Code    44  usb_scsi.o(i.SCSI_Format_Cmd)
    SCSI_Inquiry_Cmd                         0x08004701   Thumb Code    54  usb_scsi.o(i.SCSI_Inquiry_Cmd)
    SCSI_Invalid_Cmd                         0x08004749   Thumb Code    64  usb_scsi.o(i.SCSI_Invalid_Cmd)
    SCSI_ModeSense10_Cmd                     0x0800478d   Thumb Code    14  usb_scsi.o(i.SCSI_ModeSense10_Cmd)
    SCSI_ModeSense6_Cmd                      0x080047a1   Thumb Code    14  usb_scsi.o(i.SCSI_ModeSense6_Cmd)
    SCSI_Read10_Cmd                          0x080047b5   Thumb Code   110  usb_scsi.o(i.SCSI_Read10_Cmd)
    SCSI_ReadCapacity10_Cmd                  0x0800482d   Thumb Code   138  usb_scsi.o(i.SCSI_ReadCapacity10_Cmd)
    SCSI_ReadFormatCapacity_Cmd              0x080048c9   Thumb Code   120  usb_scsi.o(i.SCSI_ReadFormatCapacity_Cmd)
    SCSI_RequestSense_Cmd                    0x08004951   Thumb Code    30  usb_scsi.o(i.SCSI_RequestSense_Cmd)
    SCSI_Start_Stop_Unit_Cmd                 0x08004979   Thumb Code    14  usb_scsi.o(i.SCSI_Start_Stop_Unit_Cmd)
    SCSI_TestUnitReady_Cmd                   0x08004989   Thumb Code    52  usb_scsi.o(i.SCSI_TestUnitReady_Cmd)
    SCSI_Verify10_Cmd                        0x080049c1   Thumb Code    58  usb_scsi.o(i.SCSI_Verify10_Cmd)
    SCSI_Write10_Cmd                         0x08004a01   Thumb Code   110  usb_scsi.o(i.SCSI_Write10_Cmd)
    SDIO_IRQHandler                          0x08004a79   Thumb Code     2  stm32f10x_it.o(i.SDIO_IRQHandler)
    SPI_CalculateCRC                         0x08004a7b   Thumb Code    24  stm32f10x_spi.o(i.SPI_CalculateCRC)
    SPI_Cmd                                  0x08004a93   Thumb Code    24  stm32f10x_spi.o(i.SPI_Cmd)
    SPI_I2S_DeInit                           0x08004aad   Thumb Code    76  stm32f10x_spi.o(i.SPI_I2S_DeInit)
    SPI_I2S_GetFlagStatus                    0x08004b05   Thumb Code    18  stm32f10x_spi.o(i.SPI_I2S_GetFlagStatus)
    SPI_I2S_ReceiveData                      0x08004b17   Thumb Code     6  stm32f10x_spi.o(i.SPI_I2S_ReceiveData)
    SPI_I2S_SendData                         0x08004b1d   Thumb Code     4  stm32f10x_spi.o(i.SPI_I2S_SendData)
    SPI_Init                                 0x08004b21   Thumb Code    60  stm32f10x_spi.o(i.SPI_Init)
    SVC_Handler                              0x08004b5d   Thumb Code     2  stm32f10x_it.o(i.SVC_Handler)
    SetBTABLE                                0x08004b61   Thumb Code    12  usb_regs.o(i.SetBTABLE)
    SetDeviceAddress                         0x08004b71   Thumb Code    70  usb_core.o(i.SetDeviceAddress)
    SetEPRxAddr                              0x08004bc5   Thumb Code    28  usb_regs.o(i.SetEPRxAddr)
    SetEPRxCount                             0x08004be9   Thumb Code    70  usb_regs.o(i.SetEPRxCount)
    SetEPRxStatus                            0x08004c39   Thumb Code    62  usb_regs.o(i.SetEPRxStatus)
    SetEPRxValid                             0x08004c7d   Thumb Code    48  usb_regs.o(i.SetEPRxValid)
    SetEPTxAddr                              0x08004cb1   Thumb Code    24  usb_regs.o(i.SetEPTxAddr)
    SetEPTxCount                             0x08004cd1   Thumb Code    22  usb_regs.o(i.SetEPTxCount)
    SetEPTxStatus                            0x08004cf1   Thumb Code    62  usb_regs.o(i.SetEPTxStatus)
    SetEPType                                0x08004d35   Thumb Code    32  usb_regs.o(i.SetEPType)
    Set_CSW                                  0x08004e29   Thumb Code    46  usb_bot.o(i.Set_CSW)
    Set_Scsi_Sense_Data                      0x08004e65   Thumb Code     8  usb_scsi.o(i.Set_Scsi_Sense_Data)
    Set_USBClock                             0x08004e71   Thumb Code    18  hw_config.o(i.Set_USBClock)
    Setup0_Process                           0x08004e85   Thumb Code   172  usb_core.o(i.Setup0_Process)
    SoftReset                                0x08004f3d   Thumb Code    50  main.o(i.SoftReset)
    Standard_ClearFeature                    0x08004f79   Thumb Code   346  usb_core.o(i.Standard_ClearFeature)
    Standard_GetConfiguration                0x080050e9   Thumb Code    34  usb_core.o(i.Standard_GetConfiguration)
    Standard_GetDescriptorData               0x08005115   Thumb Code    32  usb_core.o(i.Standard_GetDescriptorData)
    Standard_GetInterface                    0x08005139   Thumb Code    34  usb_core.o(i.Standard_GetInterface)
    Standard_GetStatus                       0x08005165   Thumb Code   238  usb_core.o(i.Standard_GetStatus)
    Standard_SetConfiguration                0x08005265   Thumb Code    60  usb_core.o(i.Standard_SetConfiguration)
    Standard_SetDeviceFeature                0x080052ad   Thumb Code    30  usb_core.o(i.Standard_SetDeviceFeature)
    Standard_SetEndPointFeature              0x080052d5   Thumb Code   196  usb_core.o(i.Standard_SetEndPointFeature)
    Standard_SetInterface                    0x080053a9   Thumb Code    96  usb_core.o(i.Standard_SetInterface)
    SysTick_Ctrl                             0x08005415   Thumb Code    42  systick.o(i.SysTick_Ctrl)
    SysTick_Handler                          0x0800543f   Thumb Code     8  stm32f10x_it.o(i.SysTick_Handler)
    SysTick_HandlerService                   0x08005449   Thumb Code    52  systick.o(i.SysTick_HandlerService)
    SysTick_Init                             0x08005481   Thumb Code    86  systick.o(i.SysTick_Init)
    SystemInit                               0x080054e9   Thumb Code    78  system_stm32f10x.o(i.SystemInit)
    Transfer_Data_Request                    0x08005549   Thumb Code    46  usb_bot.o(i.Transfer_Data_Request)
    UART1_Configuration                      0x08005581   Thumb Code   186  uart1.o(i.UART1_Configuration)
    UART2_Configuration                      0x0800564d   Thumb Code   186  uart2.o(i.UART2_Configuration)
    UART3_Configuration                      0x08005715   Thumb Code   192  uart3.o(i.UART3_Configuration)
    USART1_IRQHandler                        0x080057dd   Thumb Code   110  uart1.o(i.USART1_IRQHandler)
    USART2_IRQHandler                        0x08005881   Thumb Code   164  uart2.o(i.USART2_IRQHandler)
    USART2_Interrupts_Config                 0x0800593d   Thumb Code    34  uart2.o(i.USART2_Interrupts_Config)
    USART3_IRQHandler                        0x08005961   Thumb Code   156  uart3.o(i.USART3_IRQHandler)
    USART3_Interrupts_Config                 0x08005a19   Thumb Code    32  uart3.o(i.USART3_Interrupts_Config)
    USART_ClearFlag                          0x08005a39   Thumb Code    18  stm32f10x_usart.o(i.USART_ClearFlag)
    USART_ClockInit                          0x08005a4b   Thumb Code    34  stm32f10x_usart.o(i.USART_ClockInit)
    USART_Cmd                                0x08005a6d   Thumb Code    24  stm32f10x_usart.o(i.USART_Cmd)
    USART_GetFlagStatus                      0x08005a85   Thumb Code    26  stm32f10x_usart.o(i.USART_GetFlagStatus)
    USART_GetITStatus                        0x08005a9f   Thumb Code    84  stm32f10x_usart.o(i.USART_GetITStatus)
    USART_ITConfig                           0x08005af3   Thumb Code    74  stm32f10x_usart.o(i.USART_ITConfig)
    USART_Init                               0x08005b3d   Thumb Code   210  stm32f10x_usart.o(i.USART_Init)
    USART_ReceiveData                        0x08005c15   Thumb Code    10  stm32f10x_usart.o(i.USART_ReceiveData)
    USART_SendData                           0x08005c1f   Thumb Code     8  stm32f10x_usart.o(i.USART_SendData)
    USB_Cable_Config                         0x08005c29   Thumb Code    30  hw_config.o(i.USB_Cable_Config)
    USB_Ctrl                                 0x08005c4d   Thumb Code    56  main.o(i.USB_Ctrl)
    USB_Disconnect_Config                    0x08005c89   Thumb Code    40  hw_config.o(i.USB_Disconnect_Config)
    USB_HP_CAN1_TX_IRQHandler                0x08005cb5   Thumb Code     8  stm32f10x_it.o(i.USB_HP_CAN1_TX_IRQHandler)
    USB_Init                                 0x08005cbd   Thumb Code    36  usb_init.o(i.USB_Init)
    USB_Interrupts_Config                    0x08005cf9   Thumb Code    60  hw_config.o(i.USB_Interrupts_Config)
    USB_Istr                                 0x08005d35   Thumb Code    82  usb_istr.o(i.USB_Istr)
    USB_LP_CAN1_RX0_IRQHandler               0x08005d9d   Thumb Code     8  stm32f10x_it.o(i.USB_LP_CAN1_RX0_IRQHandler)
    USB_NotConfigured_LED                    0x08005da5   Thumb Code    14  hw_config.o(i.USB_NotConfigured_LED)
    USB_SIL_Init                             0x08005db5   Thumb Code    30  usb_sil.o(i.USB_SIL_Init)
    USB_SIL_Read                             0x08005de1   Thumb Code    46  usb_sil.o(i.USB_SIL_Read)
    USB_SIL_Write                            0x08005e0f   Thumb Code    46  usb_sil.o(i.USB_SIL_Write)
    UTCTime2LocalTime                        0x08005e3d   Thumb Code   210  datetime.o(i.UTCTime2LocalTime)
    UsageFault_Handler                       0x08005f0f   Thumb Code     4  stm32f10x_it.o(i.UsageFault_Handler)
    UserToPMABufferCopy                      0x08005f15   Thumb Code    52  usb_mem.o(i.UserToPMABufferCopy)
    VTG_Parse                                0x08005f4d   Thumb Code    92  gps_receive_task.o(i.VTG_Parse)
    Wait10Ms                                 0x08005fad   Thumb Code    22  systick.o(i.Wait10Ms)
    WinSocketClrState                        0x08005fc5   Thumb Code    16  sim800.o(i.WinSocketClrState)
    WinSocketGetState                        0x08005fd9   Thumb Code     6  sim800.o(i.WinSocketGetState)
    WinSocketInit                            0x08005fe5   Thumb Code    60  sim800.o(i.WinSocketInit)
    WinSocketSend                            0x08006055   Thumb Code    60  sim800.o(i.WinSocketSend)
    Write_Memory                             0x080060b9   Thumb Code   260  memory.o(i.Write_Memory)
    ZDA_Parse                                0x080061e9   Thumb Code    50  gps_receive_task.o(i.ZDA_Parse)
    __0printf                                0x08006221   Thumb Code    22  printfa.o(i.__0printf)
    __1printf                                0x08006221   Thumb Code     0  printfa.o(i.__0printf)
    __2printf                                0x08006221   Thumb Code     0  printfa.o(i.__0printf)
    __c89printf                              0x08006221   Thumb Code     0  printfa.o(i.__0printf)
    printf                                   0x08006221   Thumb Code     0  printfa.o(i.__0printf)
    __0sprintf                               0x08006241   Thumb Code    34  printfa.o(i.__0sprintf)
    __1sprintf                               0x08006241   Thumb Code     0  printfa.o(i.__0sprintf)
    __2sprintf                               0x08006241   Thumb Code     0  printfa.o(i.__0sprintf)
    __c89sprintf                             0x08006241   Thumb Code     0  printfa.o(i.__0sprintf)
    sprintf                                  0x08006241   Thumb Code     0  printfa.o(i.__0sprintf)
    __ARM_fpclassify                         0x08006269   Thumb Code    40  fpclassify.o(i.__ARM_fpclassify)
    __ieee754_rem_pio2                       0x08006291   Thumb Code   832  rred.o(i.__ieee754_rem_pio2)
    __kernel_cos                             0x08006619   Thumb Code   230  cos_i.o(i.__kernel_cos)
    __kernel_poly                            0x08006715   Thumb Code   170  poly.o(i.__kernel_poly)
    __kernel_sin                             0x080067c1   Thumb Code   226  sin_i.o(i.__kernel_sin)
    __mathlib_dbl_underflow                  0x080068b1   Thumb Code    10  dunder.o(i.__mathlib_dbl_underflow)
    __read_errno                             0x080068c1   Thumb Code     6  errno.o(i.__read_errno)
    __scatterload_copy                       0x080068cd   Thumb Code    14  handlers.o(i.__scatterload_copy)
    __scatterload_null                       0x080068db   Thumb Code     2  handlers.o(i.__scatterload_null)
    __scatterload_zeroinit                   0x080068dd   Thumb Code    14  handlers.o(i.__scatterload_zeroinit)
    __set_errno                              0x080068ed   Thumb Code     6  errno.o(i.__set_errno)
    atcmd_ack_is                             0x0800717f   Thumb Code    22  sim800.o(i.atcmd_ack_is)
    atcmd_get_ack_section                    0x08007195   Thumb Code   104  sim800.o(i.atcmd_get_ack_section)
    atcmd_wait_respond                       0x08007201   Thumb Code    36  sim800.o(i.atcmd_wait_respond)
    atof                                     0x08007225   Thumb Code    42  atof.o(i.atof)
    beep_task                                0x08007489   Thumb Code   174  system.o(i.beep_task)
    beep_taskctrl                            0x08007549   Thumb Code   110  system.o(i.beep_taskctrl)
    beep_taskinit                            0x080075cd   Thumb Code    18  system.o(i.beep_taskinit)
    cfg_get_line                             0x080075e5   Thumb Code    80  sys_cfg.o(i.cfg_get_line)
    cfg_get_segment                          0x08007641   Thumb Code    80  sys_cfg.o(i.cfg_get_segment)
    check_flash_cfg                          0x08007691   Thumb Code   102  sys_cfg.o(i.check_flash_cfg)
    check_ipnet_status                       0x080077ad   Thumb Code   130  sim800.o(i.check_ipnet_status)
    check_itarcker_cfg                       0x08007859   Thumb Code   154  sys_cfg.o(i.check_itarcker_cfg)
    check_sim_card                           0x08007995   Thumb Code    50  sim800.o(i.check_sim_card)
    clust2sect                               0x080079e5   Thumb Code    26  ff.o(i.clust2sect)
    cos                                      0x08007a01   Thumb Code   164  cos.o(i.cos)
    cpy_cfg_to_flash                         0x08007aad   Thumb Code   170  sys_cfg.o(i.cpy_cfg_to_flash)
    delay_nus                                0x08007dc1   Thumb Code    16  systick.o(i.delay_nus)
    disc_mount                               0x080080c9   Thumb Code    28  ff.o(i.disc_mount)
    disk_initialize                          0x080080f1   Thumb Code    54  diskio.o(i.disk_initialize)
    disk_ioctl                               0x0800813d   Thumb Code    86  diskio.o(i.disk_ioctl)
    disk_read                                0x080081a5   Thumb Code    74  diskio.o(i.disk_read)
    disk_status                              0x080081f9   Thumb Code    14  diskio.o(i.disk_status)
    disk_write                               0x0800820d   Thumb Code    74  diskio.o(i.disk_write)
    f_close                                  0x08008261   Thumb Code    22  ff.o(i.f_close)
    f_getfree                                0x08008277   Thumb Code   232  ff.o(i.f_getfree)
    f_mount                                  0x08008361   Thumb Code    38  ff.o(i.f_mount)
    f_open                                   0x0800838d   Thumb Code   320  ff.o(i.f_open)
    f_printf                                 0x080084cd   Thumb Code   446  ff.o(i.f_printf)
    f_putc                                   0x0800868b   Thumb Code    42  ff.o(i.f_putc)
    f_puts                                   0x080086b5   Thumb Code    42  ff.o(i.f_puts)
    f_read                                   0x080086df   Thumb Code   470  ff.o(i.f_read)
    f_stat                                   0x080088b5   Thumb Code    58  ff.o(i.f_stat)
    f_sync                                   0x080088ef   Thumb Code   140  ff.o(i.f_sync)
    f_write                                  0x0800897b   Thumb Code   528  ff.o(i.f_write)
    fputc                                    0x08008c25   Thumb Code    32  uart1.o(i.fputc)
    gSensor_taskinit                         0x08008c49   Thumb Code    22  gsensor.o(i.gSensor_taskinit)
    get_CSQ                                  0x08008c65   Thumb Code    70  sim800.o(i.get_CSQ)
    get_cipstatus                            0x08008cc1   Thumb Code   160  sim800.o(i.get_cipstatus)
    get_fattime                              0x08008ef5   Thumb Code    60  diskio.o(i.get_fattime)
    get_gprs_status                          0x08008fc9   Thumb Code    86  sim800.o(i.get_gprs_status)
    get_gsensor_state                        0x08009035   Thumb Code     4  gsensor.o(i.get_gsensor_state)
    get_gsm_status                           0x0800903d   Thumb Code    88  sim800.o(i.get_gsm_status)
    get_spiflash_info                        0x080090a9   Thumb Code   110  w25xx.o(i.get_spiflash_info)
    gprs_task                                0x08009125   Thumb Code   952  sim800.o(i.gprs_task)
    gprs_taskctrl                            0x080096c5   Thumb Code   148  sim800.o(i.gprs_taskctrl)
    gprs_taskinit                            0x08009791   Thumb Code    28  sim800.o(i.gprs_taskinit)
    gps_comm_clr                             0x080097b1   Thumb Code     8  uart2.o(i.gps_comm_clr)
    gps_comm_get_len                         0x080097bd   Thumb Code    56  uart2.o(i.gps_comm_get_len)
    gps_comm_read                            0x080097f9   Thumb Code    32  uart2.o(i.gps_comm_read)
    gps_info_init                            0x08009821   Thumb Code    30  gps_receive_task.o(i.gps_info_init)
    gps_parse_proc                           0x08009849   Thumb Code    86  gps_receive_task.o(i.gps_parse_proc)
    gps_task                                 0x080098ad   Thumb Code   634  gps_receive_task.o(i.gps_task)
    gps_taskctrl                             0x08009c25   Thumb Code    20  gps_receive_task.o(i.gps_taskctrl)
    gps_taskinit                             0x08009c3d   Thumb Code    26  gps_receive_task.o(i.gps_taskinit)
    gpspos_to_yeelinktype                    0x08009c5d   Thumb Code   124  yeelink.o(i.gpspos_to_yeelinktype)
    gsensor_task                             0x08009d69   Thumb Code   114  gsensor.o(i.gsensor_task)
    hw_io_ctrl                               0x08009de9   Thumb Code   260  system.o(i.hw_io_ctrl)
    hw_io_init                               0x08009ef1   Thumb Code   288  system.o(i.hw_io_init)
    iPos_clr                                 0x0800a015   Thumb Code    26  yeelink.o(i.iPos_clr)
    iPos_get_num                             0x0800a035   Thumb Code    30  yeelink.o(i.iPos_get_num)
    iTrack_task                              0x0800a059   Thumb Code   126  let_us_go.o(i.iTrack_task)
    iTrack_taskctrl                          0x0800a0e9   Thumb Code    38  let_us_go.o(i.iTrack_taskctrl)
    iTrack_taskinit                          0x0800a119   Thumb Code     8  let_us_go.o(i.iTrack_taskinit)
    ischar                                   0x0800a125   Thumb Code    42  my_string.o(i.ischar)
    isdec                                    0x0800a14f   Thumb Code    18  my_string.o(i.isdec)
    isdecstring                              0x0800a161   Thumb Code    46  my_string.o(i.isdecstring)
    led_task                                 0x0800a191   Thumb Code   604  system.o(i.led_task)
    led_taskctrl                             0x0800a3f1   Thumb Code   248  system.o(i.led_taskctrl)
    led_taskinit                             0x0800a4ed   Thumb Code    22  system.o(i.led_taskinit)
    load_sys_config                          0x0800a509   Thumb Code   836  sys_cfg.o(i.load_sys_config)
    main                                     0x0800a9ad   Thumb Code   504  main.o(i.main)
    modem_poweroff_flow                      0x0800acd9   Thumb Code   202  sim800.o(i.modem_poweroff_flow)
    modem_poweron_flow                       0x0800ae19   Thumb Code   658  sim800.o(i.modem_poweron_flow)
    motion_analysis_by_gps                   0x0800b211   Thumb Code   318  let_us_go.o(i.motion_analysis_by_gps)
    nmea_get_frame                           0x0800b475   Thumb Code   182  gps_receive_task.o(i.nmea_get_frame)
    nmea_get_info                            0x0800b52d   Thumb Code   252  gps_receive_task.o(i.nmea_get_info)
    nmea_get_section                         0x0800b669   Thumb Code    52  gps_receive_task.o(i.nmea_get_section)
    now_position_to_xml                      0x0800b69d   Thumb Code   150  let_us_go.o(i.now_position_to_xml)
    pow                                      0x0800b7d1   Thumb Code  2510  pow.o(i.pow)
    printf_strbf                             0x0800c1a9   Thumb Code    38  sim800.o(i.printf_strbf)
    remember_now_gps_pos                     0x0800c331   Thumb Code    38  let_us_go.o(i.remember_now_gps_pos)
    send_atcmd                               0x0800c3c1   Thumb Code   110  sim800.o(i.send_atcmd)
    set_gsensor_ctrl                         0x0800c455   Thumb Code    98  gsensor.o(i.set_gsensor_ctrl)
    sin                                      0x0800c4bd   Thumb Code   166  sin.o(i.sin)
    socket_open                              0x0800c56d   Thumb Code    76  sim800.o(i.socket_open)
    socket_query                             0x0800c619   Thumb Code    82  sim800.o(i.socket_query)
    socket_send                              0x0800c6c5   Thumb Code    74  sim800.o(i.socket_send)
    sqrt                                     0x0800c845   Thumb Code    74  sqrt.o(i.sqrt)
    sys_time                                 0x0800c90d   Thumb Code    66  datetime.o(i.sys_time)
    syscfg_init                              0x0800c955   Thumb Code    50  system.o(i.syscfg_init)
    system_task                              0x0800c98d   Thumb Code   906  system.o(i.system_task)
    system_taskctrl                          0x0800cd91   Thumb Code   288  system.o(i.system_taskctrl)
    system_taskinit                          0x0800cf81   Thumb Code    36  system.o(i.system_taskinit)
    test_modem                               0x0800cfb1   Thumb Code    74  sim800.o(i.test_modem)
    tm2str                                   0x0800d009   Thumb Code    62  datetime.o(i.tm2str)
    uart3_clr                                0x0800d07d   Thumb Code    24  uart3.o(i.uart3_clr)
    uart3_fputc                              0x0800d0a9   Thumb Code    30  uart3.o(i.uart3_fputc)
    uart3_get_reclen                         0x0800d0cd   Thumb Code    56  uart3.o(i.uart3_get_reclen)
    uart3_printf                             0x0800d109   Thumb Code    46  uart3.o(i.uart3_printf)
    uart3_sendbf                             0x0800d141   Thumb Code    40  uart3.o(i.uart3_sendbf)
    w25xx_get_device_id                      0x0800d19d   Thumb Code     6  w25xx.o(i.w25xx_get_device_id)
    w25xx_init                               0x0800d1a9   Thumb Code   186  w25xx.o(i.w25xx_init)
    w25xx_page_write                         0x0800d279   Thumb Code   280  w25xx.o(i.w25xx_page_write)
    w25xx_read                               0x0800d395   Thumb Code   102  w25xx.o(i.w25xx_read)
    yeelink_http_init                        0x0800d475   Thumb Code    22  yeelink.o(i.yeelink_http_init)
    yeelink_task                             0x0800d495   Thumb Code   490  yeelink.o(i.yeelink_task)
    yeelink_taskinit                         0x0800d6d9   Thumb Code    32  yeelink.o(i.yeelink_taskinit)
    version_msg                              0x0800d704   Data         200  main.o(.constdata)
    MASS_DeviceDescriptor                    0x0800d7cc   Data          18  usb_desc.o(.constdata)
    MASS_ConfigDescriptor                    0x0800d7de   Data          32  usb_desc.o(.constdata)
    MASS_StringLangID                        0x0800d7fe   Data           4  usb_desc.o(.constdata)
    MASS_StringVendor                        0x0800d802   Data          34  usb_desc.o(.constdata)
    MASS_StringProduct                       0x0800d824   Data          70  usb_desc.o(.constdata)
    MASS_StringInterface                     0x0800d86a   Data          16  usb_desc.o(.constdata)
    gpx_file_header                          0x0800d87a   Data         397  gpx_record_task.o(.constdata)
    gpx_file_end                             0x0800da07   Data          28  gpx_record_task.o(.constdata)
    __mathlib_zero                           0x0800dae0   Data           8  qnan.o(.constdata)
    __ctype_categories                       0x0800dbd8   Data          64  ctype_c.o(.constdata)
    Region$$Table$$Base                      0x0800dc18   Number         0  anon$$obj.o(Region$$Table)
    Region$$Table$$Limit                     0x0800dc38   Number         0  anon$$obj.o(Region$$Table)
    cfg_checksum                             0x20000004   Data           4  sys_cfg.o(.data)
    cfg_size                                 0x20000008   Data           4  sys_cfg.o(.data)
    cfg_datetime                             0x2000000c   Data           4  sys_cfg.o(.data)
    SystemCoreClock                          0x20000014   Data           4  system_stm32f10x.o(.data)
    AHBPrescTable                            0x20000018   Data          16  system_stm32f10x.o(.data)
    Block_Read_count                         0x20000028   Data           4  memory.o(.data)
    Counter                                  0x2000002c   Data           4  memory.o(.data)
    TransferState                            0x20000030   Data           1  memory.o(.data)
    Block_offset                             0x20000044   Data           4  memory.o(.data)
    Idx                                      0x20000048   Data           4  memory.o(.data)
    Page00_Inquiry_Data                      0x2000004c   Data           5  scsi_data.o(.data)
    Standard_Inquiry_Data                    0x20000051   Data          35  scsi_data.o(.data)
    Standard_Inquiry_Data2                   0x20000074   Data          36  scsi_data.o(.data)
    Mode_Sense6_data                         0x20000098   Data           4  scsi_data.o(.data)
    Mode_Sense10_data                        0x2000009c   Data           8  scsi_data.o(.data)
    Scsi_Sense_Data                          0x200000a4   Data          18  scsi_data.o(.data)
    ReadCapacity10_Data                      0x200000b6   Data           8  scsi_data.o(.data)
    ReadFormatCapacity_Data                  0x200000be   Data          12  scsi_data.o(.data)
    Bot_State                                0x200000cc   Data           1  usb_bot.o(.data)
    Data_Len                                 0x200000ce   Data           2  usb_bot.o(.data)
    SCSI_LBA                                 0x200000d0   Data           4  usb_bot.o(.data)
    SCSI_BlkLen                              0x200000d4   Data           4  usb_bot.o(.data)
    MASS_StringSerial                        0x200000d8   Data          26  usb_desc.o(.data)
    bIntPackSOF                              0x200000f4   Data           1  usb_istr.o(.data)
    pEpInt_IN                                0x200000f8   Data          28  usb_istr.o(.data)
    pEpInt_OUT                               0x20000114   Data          28  usb_istr.o(.data)
    wIstr                                    0x20000130   Data           2  usb_istr.o(.data)
    Max_Lun                                  0x20000134   Data           4  usb_prop.o(.data)
    Device_Table                             0x20000138   Data           2  usb_prop.o(.data)
    Device_Property                          0x2000013c   Data          48  usb_prop.o(.data)
    User_Standard_Requests                   0x2000016c   Data          36  usb_prop.o(.data)
    Device_Descriptor                        0x20000190   Data           8  usb_prop.o(.data)
    Config_Descriptor                        0x20000198   Data           8  usb_prop.o(.data)
    String_Descriptor                        0x200001a0   Data          40  usb_prop.o(.data)
    bDeviceState                             0x200001c8   Data           4  usb_pwr.o(.data)
    fSuspendEnabled                          0x200001cc   Data           1  usb_pwr.o(.data)
    ResumeS                                  0x200001cd   Data           2  usb_pwr.o(.data)
    Data_Mul_MaxPacketSize                   0x200001d0   Data           1  usb_core.o(.data)
    StatusInfo                               0x200001d2   Data           2  usb_core.o(.data)
    EPindex                                  0x200001d4   Data           1  usb_init.o(.data)
    pInformation                             0x200001d8   Data           4  usb_init.o(.data)
    pProperty                                0x200001dc   Data           4  usb_init.o(.data)
    SaveState                                0x200001e0   Data           2  usb_init.o(.data)
    wInterrupt_Mask                          0x200001e2   Data           2  usb_init.o(.data)
    pUser_Standard_Requests                  0x200001e4   Data           4  usb_init.o(.data)
    SaveRState                               0x200001e8   Data           2  usb_int.o(.data)
    SaveTState                               0x200001ea   Data           2  usb_int.o(.data)
    DiscSectorCount                          0x200001f0   Data           4  diskio.o(.data)
    DiscSectorSize                           0x200001f4   Data           4  diskio.o(.data)
    DiscBlockSize                            0x200001f8   Data           4  diskio.o(.data)
    DiscCapacity                             0x200001fc   Data           4  diskio.o(.data)
    DiscBlockNum                             0x20000200   Data           4  diskio.o(.data)
    fat_fs                                   0x20000204   Data           4  ff.o(.data)
    gps_rec_count                            0x2000022c   Data           4  uart2.o(.data)
    gprs_rx_cnt                              0x20000230   Data           4  uart3.o(.data)
    gprs_tx_cnt                              0x20000234   Data           4  uart3.o(.data)
    gprs_tx_length                           0x20000238   Data           4  uart3.o(.data)
    gprs_tx_buffer                           0x20000240   Data           2  uart3.o(.data)
    gGpsState                                0x20000258   Data           2  gps_receive_task.o(.data)
    gps_taskstate                            0x2000025c   Data           4  gps_receive_task.o(.data)
    iTrack_mark_t                            0x20000264   Data           4  let_us_go.o(.data)
    systick                                  0x20000268   Data           8  systick.o(.data)
    gUsbLinked                               0x20000270   Data           4  system.o(.data)
    g_pre_BatteryVoltage                     0x20000274   Data           4  system.o(.data)
    gSensor                                  0x2000027c   Data           4  system.o(.data)
    SaveEnergyStep                           0x20000280   Data           4  system.o(.data)
    SleepStep                                0x20000284   Data           4  system.o(.data)
    g_BatteryVoltage                         0x20000288   Data           4  system.o(.data)
    gPowerState                              0x2000028c   Data           4  system.o(.data)
    beep_taskstate                           0x20000294   Data           1  system.o(.data)
    beep_on_cnt                              0x20000295   Data           1  system.o(.data)
    beep_off_cnt                             0x20000296   Data           1  system.o(.data)
    beep_cnt                                 0x20000298   Data           4  system.o(.data)
    adc_task_t_mark                          0x2000029c   Data           4  system.o(.data)
    adc_task_st                              0x200002a0   Data           1  system.o(.data)
    adc_read_cnt                             0x200002a1   Data           1  system.o(.data)
    md_poweron_step                          0x200002ac   Data           4  sim800.o(.data)
    md_poweroff_step                         0x200002b0   Data           4  sim800.o(.data)
    md_check_fail_cnt                        0x200002b4   Data           4  sim800.o(.data)
    gModemState                              0x200002b8   Data           2  sim800.o(.data)
    gModemVoltage                            0x200002bc   Data           4  sim800.o(.data)
    g_YeelinkNextTime                        0x200002cc   Data           4  yeelink.o(.data)
    gsensor_task_t_sec                       0x200002d0   Data           4  gsensor.o(.data)
    Gsensor_time_count                       0x200002d4   Data           4  gsensor.o(.data)
    INT1_count                               0x200002d8   Data           4  gsensor.o(.data)
    pre_INT1_count_S                         0x200002dc   Data           4  gsensor.o(.data)
    pre_INT1_count                           0x200002e0   Data           4  gsensor.o(.data)
    last_shock_mark_t                        0x200002e4   Data           4  gsensor.o(.data)
    gpx_record_state                         0x20000300   Data           4  gpx_record_task.o(.data)
    __stdout                                 0x20000304   Data           4  stdout.o(.data)
    Mass_Memory_Size                         0x2000030c   Data          12  mass_mal.o(.bss)
    Mass_Block_Size                          0x20000318   Data          12  mass_mal.o(.bss)
    Mass_Block_Count                         0x20000324   Data          12  mass_mal.o(.bss)
    Data_Buffer                              0x20000330   Data        4096  memory.o(.bss)
    Bulk_Data_Buff                           0x20001330   Data          64  usb_bot.o(.bss)
    CBW                                      0x20001370   Data          32  usb_bot.o(.bss)
    CSW                                      0x20001390   Data          16  usb_bot.o(.bss)
    Device_Info                              0x200013a0   Data          28  usb_init.o(.bss)
    my_disk                                  0x200013bc   Data          56  ff.o(.bss)
    gprs_rx_buffer                           0x200015e9   Data         401  uart3.o(.bss)
    g_NMEAInfo                               0x20001780   Data          80  gps_receive_task.o(.bss)
    g_GpsInfo                                0x200017d0   Data         120  gps_receive_task.o(.bss)
    gps_nmea_bf                              0x20001848   Data         500  gps_receive_task.o(.bss)
    frame_bf                                 0x20001a3c   Data         210  gps_receive_task.o(.bss)
    iTrack                                   0x20001b78   Data          32  let_us_go.o(.bss)
    g_NewPosition                            0x20001b98   Data          80  let_us_go.o(.bss)
    mark_start_p                             0x20001be8   Data          80  let_us_go.o(.bss)
    g_SysCfg                                 0x20001c38   Data          32  system.o(.bss)
    g_System                                 0x20001c58   Data          12  system.o(.bss)
    led                                      0x20001c64   Data          32  system.o(.bss)
    winsocket                                0x20001cc8   Data          32  sim800.o(.bss)
    winsocket_server_open_cmd                0x20001ce8   Data         100  sim800.o(.bss)
    yeelink_server                           0x20001d50   Data          76  yeelink.o(.bss)
    iPos                                     0x20001da0   Data        1224  yeelink.o(.bss)
    yeelink_http_buffer                      0x20002268   Data         323  yeelink.o(.bss)
    g_gsensor_info                           0x200023ac   Data          32  gsensor.o(.bss)
    gpx_fp                                   0x200023cc   Data        4132  gpx_record_task.o(.bss)
    __initial_sp                             0x200045f0   Data           0  startup_stm32f10x_hd.o(STACK)



==============================================================================

Memory Map of the image

  Image Entry point : 0x08000131

  Load Region LR_IROM1 (Base: 0x08000000, Size: 0x0000df44, Max: 0x00010000, ABSOLUTE, COMPRESSED[0x0000dd30])

    Execution Region ER_IROM1 (Base: 0x08000000, Size: 0x0000dc38, Max: 0x00010000, ABSOLUTE)

    Base Addr    Size         Type   Attr      Idx    E Section Name        Object

    0x08000000   0x00000130   Data   RO         4361    RESET               startup_stm32f10x_hd.o
    0x08000130   0x00000000   Code   RO         5286  * .ARM.Collect$$$$00000000  mc_w.l(entry.o)
    0x08000130   0x00000004   Code   RO         5619    .ARM.Collect$$$$00000001  mc_w.l(entry2.o)
    0x08000134   0x00000004   Code   RO         5622    .ARM.Collect$$$$00000004  mc_w.l(entry5.o)
    0x08000138   0x00000008   Code   RO         5623    .ARM.Collect$$$$00000007  mc_w.l(entry7.o)
    0x08000140   0x00000004   Code   RO         5620    .ARM.Collect$$$$00002712  mc_w.l(entry2.o)
    0x08000144   0x00000024   Code   RO         4362    .text               startup_stm32f10x_hd.o
    0x08000168   0x00000900   Code   RO         5201    .text               gps_algorithm.lib(gps_algorithm.o)
    0x08000a68   0x00000310   Code   RO         5220    .text               gpx_record_task.lib(gpx_record_task.o)
    0x08000d78   0x0000000c   Code   RO         5289    .text               mc_w.l(siabs.o)
    0x08000d84   0x00000024   Code   RO         5293    .text               mc_w.l(memcpya.o)
    0x08000da8   0x00000026   Code   RO         5295    .text               mc_w.l(memseta.o)
    0x08000dce   0x0000001c   Code   RO         5297    .text               mc_w.l(strcat.o)
    0x08000dea   0x0000002c   Code   RO         5299    .text               mc_w.l(strstr.o)
    0x08000e16   0x00000010   Code   RO         5301    .text               mc_w.l(strlen.o)
    0x08000e26   0x0000001c   Code   RO         5303    .text               mc_w.l(strcmp.o)
    0x08000e42   0x00000012   Code   RO         5305    .text               mc_w.l(strcpy.o)
    0x08000e54   0x0000006c   Code   RO         5570    .text               mf_w.l(fmul.o)
    0x08000ec0   0x00000080   Code   RO         5572    .text               mf_w.l(fdiv.o)
    0x08000f40   0x0000014a   Code   RO         5574    .text               mf_w.l(dadd.o)
    0x0800108a   0x000000e2   Code   RO         5576    .text               mf_w.l(dmul.o)
    0x0800116c   0x000000de   Code   RO         5578    .text               mf_w.l(ddiv.o)
    0x0800124a   0x00000012   Code   RO         5580    .text               mf_w.l(fflti.o)
    0x0800125c   0x0000000a   Code   RO         5582    .text               mf_w.l(ffltui.o)
    0x08001266   0x00000032   Code   RO         5584    .text               mf_w.l(ffixi.o)
    0x08001298   0x0000003e   Code   RO         5586    .text               mf_w.l(dfixi.o)
    0x080012d6   0x0000002c   Code   RO         5588    .text               mf_w.l(f2d.o)
    0x08001302   0x00000002   PAD
    0x08001304   0x00000028   Code   RO         5590    .text               mf_w.l(cdcmple.o)
    0x0800132c   0x00000028   Code   RO         5592    .text               mf_w.l(cdrcmple.o)
    0x08001354   0x00000038   Code   RO         5594    .text               mf_w.l(d2f.o)
    0x0800138c   0x00000014   Code   RO         5596    .text               mf_w.l(cfrcmple.o)
    0x080013a0   0x0000002c   Code   RO         5625    .text               mc_w.l(uidiv.o)
    0x080013cc   0x00000066   Code   RO         5627    .text               mc_w.l(uldiv.o)
    0x08001432   0x0000001e   Code   RO         5629    .text               mc_w.l(llshl.o)
    0x08001450   0x00000020   Code   RO         5631    .text               mc_w.l(llushr.o)
    0x08001470   0x00000024   Code   RO         5633    .text               mc_w.l(llsshr.o)
    0x08001494   0x00000098   Code   RO         5642    .text               mc_w.l(strtod.o)
    0x0800152c   0x00000000   Code   RO         5644    .text               mc_w.l(iusefp.o)
    0x0800152c   0x00000070   Code   RO         5645    .text               mf_w.l(fepilogue.o)
    0x0800159c   0x000000c2   Code   RO         5647    .text               mf_w.l(depilogue.o)
    0x0800165e   0x0000002e   Code   RO         5649    .text               mf_w.l(dscalb.o)
    0x0800168c   0x000000a0   Code   RO         5651    .text               mf_w.l(dsqrt.o)
    0x0800172c   0x00000022   Code   RO         5653    .text               mf_w.l(dflti.o)
    0x0800174e   0x00000030   Code   RO         5655    .text               mf_w.l(dfixul.o)
    0x0800177e   0x00000002   PAD
    0x08001780   0x00000024   Code   RO         5657    .text               mc_w.l(init.o)
    0x080017a4   0x0000000a   Code   RO         5659    .text               mc_w.l(isspace_c.o)
    0x080017ae   0x00000002   PAD
    0x080017b0   0x00000350   Code   RO         5661    .text               mc_w.l(scanf_fp.o)
    0x08001b00   0x00000040   Code   RO         5663    .text               mc_w.l(_sgetc.o)
    0x08001b40   0x0000001a   Code   RO         5665    .text               mf_w.l(dfltui.o)
    0x08001b5a   0x00000002   PAD
    0x08001b5c   0x00000028   Code   RO         5667    .text               mc_w.l(ctype_c.o)
    0x08001b84   0x00000018   Code   RO         5670    .text               mf_w.l(dfltul.o)
    0x08001b9c   0x0000005c   Code   RO         5680    .text               mc_w.l(__dczerorl2.o)
    0x08001bf8   0x00000016   Code   RO         4143    i.ADC_Cmd           stm32f10x_adc.o
    0x08001c0e   0x00000002   PAD
    0x08001c10   0x0000006c   Code   RO         4582    i.ADC_Configuration  system.o
    0x08001c7c   0x00000008   Code   RO         4152    i.ADC_GetConversionValue  stm32f10x_adc.o
    0x08001c84   0x00000012   Code   RO         4154    i.ADC_GetFlagStatus  stm32f10x_adc.o
    0x08001c96   0x00000002   PAD
    0x08001c98   0x00000050   Code   RO         4161    i.ADC_Init          stm32f10x_adc.o
    0x08001ce8   0x000000b8   Code   RO         4165    i.ADC_RegularChannelConfig  stm32f10x_adc.o
    0x08001da0   0x00000016   Code   RO         4168    i.ADC_SoftwareStartConvCmd  stm32f10x_adc.o
    0x08001db6   0x00000002   PAD
    0x08001db8   0x0000026c   Code   RO         4583    i.ADC_task          system.o
    0x08002024   0x00000010   Code   RO         4584    i.ADC_taskctrl      system.o
    0x08002034   0x00000028   Code   RO         4585    i.ADC_taskinit      system.o
    0x0800205c   0x00000040   Code   RO          712    i.Bot_Abort         usb_bot.o
    0x0800209c   0x00000004   Code   RO            1    i.BusFault_Handler  stm32f10x_it.o
    0x080020a0   0x0000000c   Code   RO         1278    i.ByteSwap          usb_regs.o
    0x080020ac   0x000002c4   Code   RO          713    i.CBW_Decode        usb_bot.o
    0x08002370   0x000000c8   Code   RO         1230    i.CTR_HP            usb_int.o
    0x08002438   0x00000288   Code   RO         1231    i.CTR_LP            usb_int.o
    0x080026c0   0x00000038   Code   RO         1279    i.ClearDTOG_RX      usb_regs.o
    0x080026f8   0x00000038   Code   RO         1280    i.ClearDTOG_TX      usb_regs.o
    0x08002730   0x00000028   Code   RO         1285    i.Clear_Status_Out  usb_regs.o
    0x08002758   0x000000c4   Code   RO         1088    i.DataStageIn       usb_core.o
    0x0800281c   0x000000c0   Code   RO         1089    i.DataStageOut      usb_core.o
    0x080028dc   0x00000294   Code   RO         1090    i.Data_Setup0       usb_core.o
    0x08002b70   0x00000002   Code   RO            2    i.DebugMon_Handler  stm32f10x_it.o
    0x08002b72   0x00000124   Code   RO         4697    i.DecStr2Int        my_string.o
    0x08002c96   0x00000008   Code   RO          772    i.EP1_IN_Callback   usb_endp.o
    0x08002c9e   0x00000008   Code   RO          773    i.EP2_OUT_Callback  usb_endp.o
    0x08002ca6   0x00000002   PAD
    0x08002ca8   0x0000002c   Code   RO         5050    i.EXTI0_IRQHandler  gsensor.o
    0x08002cd4   0x0000000c   Code   RO         2315    i.EXTI_ClearFlag    stm32f10x_exti.o
    0x08002ce0   0x00000028   Code   RO         5051    i.EXTI_Configuration  gsensor.o
    0x08002d08   0x0000002c   Code   RO         2320    i.EXTI_GetITStatus  stm32f10x_exti.o
    0x08002d34   0x000000ac   Code   RO         2321    i.EXTI_Init         stm32f10x_exti.o
    0x08002de0   0x0000004c   Code   RO         2374    i.FLASH_ErasePage   stm32f10x_flash.o
    0x08002e2c   0x00000038   Code   RO         2375    i.FLASH_GetBank1Status  stm32f10x_flash.o
    0x08002e64   0x00000014   Code   RO         2384    i.FLASH_Lock        stm32f10x_flash.o
    0x08002e78   0x00000064   Code   RO         2389    i.FLASH_ProgramWord  stm32f10x_flash.o
    0x08002edc   0x00000018   Code   RO         2392    i.FLASH_Unlock      stm32f10x_flash.o
    0x08002ef4   0x00000026   Code   RO         2396    i.FLASH_WaitForLastOperation  stm32f10x_flash.o
    0x08002f1a   0x00000002   PAD
    0x08002f1c   0x00000090   Code   RO         4366    i.GGA_Parse         gps_receive_task.o
    0x08002fac   0x00000038   Code   RO         4367    i.GLL_Parse         gps_receive_task.o
    0x08002fe4   0x00000030   Code   RO         5052    i.GPIO_Configuration  gsensor.o
    0x08003014   0x00000040   Code   RO         2666    i.GPIO_EXTILineConfig  stm32f10x_gpio.o
    0x08003054   0x00000112   Code   RO         2669    i.GPIO_Init         stm32f10x_gpio.o
    0x08003166   0x00000012   Code   RO         2673    i.GPIO_ReadInputDataBit  stm32f10x_gpio.o
    0x08003178   0x00000004   Code   RO         2676    i.GPIO_ResetBits    stm32f10x_gpio.o
    0x0800317c   0x00000004   Code   RO         2677    i.GPIO_SetBits      stm32f10x_gpio.o
    0x08003180   0x0000003a   Code   RO         4368    i.GSA_Parse         gps_receive_task.o
    0x080031ba   0x0000002c   Code   RO         4369    i.GSV_Parse         gps_receive_task.o
    0x080031e6   0x00000002   PAD
    0x080031e8   0x00000024   Code   RO         1297    i.GetEPRxAddr       usb_regs.o
    0x0800320c   0x00000024   Code   RO         1298    i.GetEPRxCount      usb_regs.o
    0x08003230   0x00000020   Code   RO         1300    i.GetEPTxAddr       usb_regs.o
    0x08003250   0x00000010   Code   RO         4370    i.GetGpsState       gps_receive_task.o
    0x08003260   0x00000010   Code   RO         4835    i.GetModemMode      sim800.o
    0x08003270   0x00000010   Code   RO         4836    i.GetModemState     sim800.o
    0x08003280   0x0000000c   Code   RO         4527    i.GetSysTick_10Ms   systick.o
    0x0800328c   0x0000000c   Code   RO         4528    i.GetSysTick_Sec    systick.o
    0x08003298   0x0000001c   Code   RO          816    i.Get_Max_Lun       usb_prop.o
    0x080032b4   0x0000003c   Code   RO          475    i.Get_SerialNum     hw_config.o
    0x080032f0   0x00000008   Code   RO            3    i.HardFault_Handler  stm32f10x_it.o
    0x080032f8   0x0000001c   Code   RO         4371    i.HexToChar         gps_receive_task.o
    0x08003314   0x00000040   Code   RO         5125    i.I2C_Ack           sof_iic.o
    0x08003354   0x0000002c   Code   RO         5126    i.I2C_Configuration  sof_iic.o
    0x08003380   0x00000040   Code   RO         5127    i.I2C_NoAck         sof_iic.o
    0x080033c0   0x00000082   Code   RO         5128    i.I2C_ReadByte      sof_iic.o
    0x08003442   0x00000002   PAD
    0x08003444   0x00000064   Code   RO         5129    i.I2C_ReceiveByte   sof_iic.o
    0x080034a8   0x00000024   Code   RO         5130    i.I2C_SDA_IN        sof_iic.o
    0x080034cc   0x00000024   Code   RO         5131    i.I2C_SDA_OUT       sof_iic.o
    0x080034f0   0x00000058   Code   RO         5132    i.I2C_SendByte      sof_iic.o
    0x08003548   0x00000068   Code   RO         5133    i.I2C_Start         sof_iic.o
    0x080035b0   0x00000040   Code   RO         5134    i.I2C_Stop          sof_iic.o
    0x080035f0   0x0000005c   Code   RO         5135    i.I2C_WaitAck       sof_iic.o
    0x0800364c   0x0000004e   Code   RO         5136    i.I2C_WriteByte     sof_iic.o
    0x0800369a   0x0000000e   Code   RO         5137    i.I2C_delay         sof_iic.o
    0x080036a8   0x00000028   Code   RO           78    i.IWDG_Configuration  main.o
    0x080036d0   0x00000010   Code   RO         2777    i.IWDG_Enable       stm32f10x_iwdg.o
    0x080036e0   0x00000010   Code   RO         2779    i.IWDG_ReloadCounter  stm32f10x_iwdg.o
    0x080036f0   0x0000000c   Code   RO         2780    i.IWDG_SetPrescaler  stm32f10x_iwdg.o
    0x080036fc   0x0000000c   Code   RO         2781    i.IWDG_SetReload    stm32f10x_iwdg.o
    0x08003708   0x0000000c   Code   RO         2782    i.IWDG_WriteAccessCmd  stm32f10x_iwdg.o
    0x08003714   0x00000070   Code   RO         1091    i.In0_Process       usb_core.o
    0x08003784   0x0000003e   Code   RO          476    i.IntToUnicode      hw_config.o
    0x080037c2   0x0000002c   Code   RO         4744    i.IsLeapYear        datetime.o
    0x080037ee   0x0000000e   Code   RO          479    i.Led_RW_OFF        hw_config.o
    0x080037fc   0x0000000e   Code   RO          480    i.Led_RW_ON         hw_config.o
    0x0800380a   0x0000000a   Code   RO          481    i.MAL_Config        hw_config.o
    0x08003814   0x0000001e   Code   RO          585    i.MAL_GetStatus     mass_mal.o
    0x08003832   0x00000002   PAD
    0x08003834   0x000000dc   Code   RO          586    i.MAL_Init          mass_mal.o
    0x08003910   0x0000002e   Code   RO          587    i.MAL_Read          mass_mal.o
    0x0800393e   0x0000002e   Code   RO          588    i.MAL_Write         mass_mal.o
    0x0800396c   0x00000060   Code   RO          817    i.MASS_Data_Setup   usb_prop.o
    0x080039cc   0x00000014   Code   RO          818    i.MASS_GetConfigDescriptor  usb_prop.o
    0x080039e0   0x00000014   Code   RO          819    i.MASS_GetDeviceDescriptor  usb_prop.o
    0x080039f4   0x00000028   Code   RO          820    i.MASS_GetStringDescriptor  usb_prop.o
    0x08003a1c   0x00000016   Code   RO          821    i.MASS_Get_Interface_Setting  usb_prop.o
    0x08003a32   0x00000002   PAD
    0x08003a34   0x0000005c   Code   RO          822    i.MASS_NoData_Setup  usb_prop.o
    0x08003a90   0x000000f0   Code   RO          823    i.MASS_Reset        usb_prop.o
    0x08003b80   0x00000002   Code   RO          824    i.MASS_Status_In    usb_prop.o
    0x08003b82   0x00000002   Code   RO          825    i.MASS_Status_Out   usb_prop.o
    0x08003b84   0x00000028   Code   RO          826    i.MASS_init         usb_prop.o
    0x08003bac   0x00000084   Code   RO         5054    i.MBA220init        gsensor.o
    0x08003c30   0x0000001c   Code   RO          827    i.Mass_Storage_ClearFeature  usb_prop.o
    0x08003c4c   0x00000074   Code   RO          714    i.Mass_Storage_In   usb_bot.o
    0x08003cc0   0x00000090   Code   RO          715    i.Mass_Storage_Out  usb_bot.o
    0x08003d50   0x00000030   Code   RO          828    i.Mass_Storage_SetConfiguration  usb_prop.o
    0x08003d80   0x0000000c   Code   RO          829    i.Mass_Storage_SetDeviceAddress  usb_prop.o
    0x08003d8c   0x00000004   Code   RO            4    i.MemManage_Handler  stm32f10x_it.o
    0x08003d90   0x00000002   Code   RO            5    i.NMI_Handler       stm32f10x_it.o
    0x08003d92   0x00000002   Code   RO         1092    i.NOP_Process       usb_core.o
    0x08003d94   0x00000022   Code   RO         5055    i.NVIC_Configuration  gsensor.o
    0x08003db6   0x00000002   PAD
    0x08003db8   0x00000084   Code   RO         2183    i.NVIC_Init         misc.o
    0x08003e3c   0x00000014   Code   RO         2184    i.NVIC_PriorityGroupConfig  misc.o
    0x08003e50   0x00000144   Code   RO         1093    i.NoData_Setup0     usb_core.o
    0x08003f94   0x00000050   Code   RO         1094    i.Out0_Process      usb_core.o
    0x08003fe4   0x00000024   Code   RO         1260    i.PMAToUserBufferCopy  usb_mem.o
    0x08004008   0x00000048   Code   RO         2823    i.PWR_EnterSTOPMode  stm32f10x_pwr.o
    0x08004050   0x00000002   Code   RO            6    i.PendSV_Handler    stm32f10x_it.o
    0x08004052   0x00000002   PAD
    0x08004054   0x00000048   Code   RO         1095    i.Post0_Process     usb_core.o
    0x0800409c   0x00000050   Code   RO          926    i.PowerOn           usb_pwr.o
    0x080040ec   0x00000020   Code   RO         2881    i.RCC_APB1PeriphClockCmd  stm32f10x_rcc.o
    0x0800410c   0x00000020   Code   RO         2882    i.RCC_APB1PeriphResetCmd  stm32f10x_rcc.o
    0x0800412c   0x00000020   Code   RO         2883    i.RCC_APB2PeriphClockCmd  stm32f10x_rcc.o
    0x0800414c   0x00000020   Code   RO         2884    i.RCC_APB2PeriphResetCmd  stm32f10x_rcc.o
    0x0800416c   0x00000014   Code   RO         2887    i.RCC_ClearFlag     stm32f10x_rcc.o
    0x08004180   0x000000d4   Code   RO         2891    i.RCC_GetClocksFreq  stm32f10x_rcc.o
    0x08004254   0x0000003c   Code   RO         2892    i.RCC_GetFlagStatus  stm32f10x_rcc.o
    0x08004290   0x0000000c   Code   RO         2909    i.RCC_USBCLKConfig  stm32f10x_rcc.o
    0x0800429c   0x0000029c   Code   RO         4372    i.RMC_Parse         gps_receive_task.o
    0x08004538   0x0000010c   Code   RO          631    i.Read_Memory       memory.o
    0x08004644   0x0000008c   Code   RO          967    i.SCSI_Address_Management  usb_scsi.o
    0x080046d0   0x00000030   Code   RO          968    i.SCSI_Format_Cmd   usb_scsi.o
    0x08004700   0x00000048   Code   RO          969    i.SCSI_Inquiry_Cmd  usb_scsi.o
    0x08004748   0x00000044   Code   RO          970    i.SCSI_Invalid_Cmd  usb_scsi.o
    0x0800478c   0x00000014   Code   RO          971    i.SCSI_ModeSense10_Cmd  usb_scsi.o
    0x080047a0   0x00000014   Code   RO          972    i.SCSI_ModeSense6_Cmd  usb_scsi.o
    0x080047b4   0x00000078   Code   RO          973    i.SCSI_Read10_Cmd   usb_scsi.o
    0x0800482c   0x0000009c   Code   RO          974    i.SCSI_ReadCapacity10_Cmd  usb_scsi.o
    0x080048c8   0x00000088   Code   RO          975    i.SCSI_ReadFormatCapacity_Cmd  usb_scsi.o
    0x08004950   0x00000028   Code   RO          976    i.SCSI_RequestSense_Cmd  usb_scsi.o
    0x08004978   0x0000000e   Code   RO          977    i.SCSI_Start_Stop_Unit_Cmd  usb_scsi.o
    0x08004986   0x00000002   PAD
    0x08004988   0x00000038   Code   RO          978    i.SCSI_TestUnitReady_Cmd  usb_scsi.o
    0x080049c0   0x00000040   Code   RO          980    i.SCSI_Verify10_Cmd  usb_scsi.o
    0x08004a00   0x00000078   Code   RO          981    i.SCSI_Write10_Cmd  usb_scsi.o
    0x08004a78   0x00000002   Code   RO            7    i.SDIO_IRQHandler   stm32f10x_it.o
    0x08004a7a   0x00000018   Code   RO         3269    i.SPI_CalculateCRC  stm32f10x_spi.o
    0x08004a92   0x00000018   Code   RO         3270    i.SPI_Cmd           stm32f10x_spi.o
    0x08004aaa   0x00000002   PAD
    0x08004aac   0x00000058   Code   RO         3277    i.SPI_I2S_DeInit    stm32f10x_spi.o
    0x08004b04   0x00000012   Code   RO         3278    i.SPI_I2S_GetFlagStatus  stm32f10x_spi.o
    0x08004b16   0x00000006   Code   RO         3281    i.SPI_I2S_ReceiveData  stm32f10x_spi.o
    0x08004b1c   0x00000004   Code   RO         3282    i.SPI_I2S_SendData  stm32f10x_spi.o
    0x08004b20   0x0000003c   Code   RO         3283    i.SPI_Init          stm32f10x_spi.o
    0x08004b5c   0x00000002   Code   RO            8    i.SVC_Handler       stm32f10x_it.o
    0x08004b5e   0x00000002   PAD
    0x08004b60   0x00000010   Code   RO         1308    i.SetBTABLE         usb_regs.o
    0x08004b70   0x00000054   Code   RO         1096    i.SetDeviceAddress  usb_core.o
    0x08004bc4   0x00000024   Code   RO         1322    i.SetEPRxAddr       usb_regs.o
    0x08004be8   0x00000050   Code   RO         1323    i.SetEPRxCount      usb_regs.o
    0x08004c38   0x00000044   Code   RO         1324    i.SetEPRxStatus     usb_regs.o
    0x08004c7c   0x00000034   Code   RO         1325    i.SetEPRxValid      usb_regs.o
    0x08004cb0   0x00000020   Code   RO         1326    i.SetEPTxAddr       usb_regs.o
    0x08004cd0   0x00000020   Code   RO         1327    i.SetEPTxCount      usb_regs.o
    0x08004cf0   0x00000044   Code   RO         1328    i.SetEPTxStatus     usb_regs.o
    0x08004d34   0x00000024   Code   RO         1330    i.SetEPType         usb_regs.o
    0x08004d58   0x00000008   Code   RO          364    i.SetSysClock       system_stm32f10x.o
    0x08004d60   0x000000c8   Code   RO          365    i.SetSysClockTo48   system_stm32f10x.o
    0x08004e28   0x0000003c   Code   RO          716    i.Set_CSW           usb_bot.o
    0x08004e64   0x0000000c   Code   RO          982    i.Set_Scsi_Sense_Data  usb_scsi.o
    0x08004e70   0x00000012   Code   RO          483    i.Set_USBClock      hw_config.o
    0x08004e82   0x00000002   PAD
    0x08004e84   0x000000b8   Code   RO         1097    i.Setup0_Process    usb_core.o
    0x08004f3c   0x0000003c   Code   RO           79    i.SoftReset         main.o
    0x08004f78   0x00000170   Code   RO         1098    i.Standard_ClearFeature  usb_core.o
    0x080050e8   0x0000002c   Code   RO         1099    i.Standard_GetConfiguration  usb_core.o
    0x08005114   0x00000024   Code   RO         1100    i.Standard_GetDescriptorData  usb_core.o
    0x08005138   0x0000002c   Code   RO         1101    i.Standard_GetInterface  usb_core.o
    0x08005164   0x00000100   Code   RO         1102    i.Standard_GetStatus  usb_core.o
    0x08005264   0x00000048   Code   RO         1103    i.Standard_SetConfiguration  usb_core.o
    0x080052ac   0x00000028   Code   RO         1104    i.Standard_SetDeviceFeature  usb_core.o
    0x080052d4   0x000000d4   Code   RO         1105    i.Standard_SetEndPointFeature  usb_core.o
    0x080053a8   0x0000006c   Code   RO         1106    i.Standard_SetInterface  usb_core.o
    0x08005414   0x0000002a   Code   RO         4529    i.SysTick_Ctrl      systick.o
    0x0800543e   0x00000008   Code   RO            9    i.SysTick_Handler   stm32f10x_it.o
    0x08005446   0x00000002   PAD
    0x08005448   0x00000038   Code   RO         4530    i.SysTick_HandlerService  systick.o
    0x08005480   0x00000068   Code   RO         4531    i.SysTick_Init      systick.o
    0x080054e8   0x00000060   Code   RO          367    i.SystemInit        system_stm32f10x.o
    0x08005548   0x00000038   Code   RO          717    i.Transfer_Data_Request  usb_bot.o
    0x08005580   0x000000cc   Code   RO         1990    i.UART1_Configuration  uart1.o
    0x0800564c   0x000000c8   Code   RO         2034    i.UART2_Configuration  uart2.o
    0x08005714   0x000000c8   Code   RO         2095    i.UART3_Configuration  uart3.o
    0x080057dc   0x00000084   Code   RO         1991    i.USART1_IRQHandler  uart1.o
    0x08005860   0x00000020   Code   RO         1992    i.USART1_Interrupts_Config  uart1.o
    0x08005880   0x000000bc   Code   RO         2035    i.USART2_IRQHandler  uart2.o
    0x0800593c   0x00000022   Code   RO         2036    i.USART2_Interrupts_Config  uart2.o
    0x0800595e   0x00000002   PAD
    0x08005960   0x000000b8   Code   RO         2096    i.USART3_IRQHandler  uart3.o
    0x08005a18   0x00000020   Code   RO         2097    i.USART3_Interrupts_Config  uart3.o
    0x08005a38   0x00000012   Code   RO         3957    i.USART_ClearFlag   stm32f10x_usart.o
    0x08005a4a   0x00000022   Code   RO         3959    i.USART_ClockInit   stm32f10x_usart.o
    0x08005a6c   0x00000018   Code   RO         3961    i.USART_Cmd         stm32f10x_usart.o
    0x08005a84   0x0000001a   Code   RO         3964    i.USART_GetFlagStatus  stm32f10x_usart.o
    0x08005a9e   0x00000054   Code   RO         3965    i.USART_GetITStatus  stm32f10x_usart.o
    0x08005af2   0x0000004a   Code   RO         3967    i.USART_ITConfig    stm32f10x_usart.o
    0x08005b3c   0x000000d8   Code   RO         3968    i.USART_Init        stm32f10x_usart.o
    0x08005c14   0x0000000a   Code   RO         3975    i.USART_ReceiveData  stm32f10x_usart.o
    0x08005c1e   0x00000008   Code   RO         3978    i.USART_SendData    stm32f10x_usart.o
    0x08005c26   0x00000002   PAD
    0x08005c28   0x00000024   Code   RO          484    i.USB_Cable_Config  hw_config.o
    0x08005c4c   0x0000003c   Code   RO           80    i.USB_Ctrl          main.o
    0x08005c88   0x0000002c   Code   RO          486    i.USB_Disconnect_Config  hw_config.o
    0x08005cb4   0x00000008   Code   RO           10    i.USB_HP_CAN1_TX_IRQHandler  stm32f10x_it.o
    0x08005cbc   0x0000003c   Code   RO         1207    i.USB_Init          usb_init.o
    0x08005cf8   0x0000003c   Code   RO          487    i.USB_Interrupts_Config  hw_config.o
    0x08005d34   0x00000068   Code   RO          793    i.USB_Istr          usb_istr.o
    0x08005d9c   0x00000008   Code   RO           11    i.USB_LP_CAN1_RX0_IRQHandler  stm32f10x_it.o
    0x08005da4   0x0000000e   Code   RO          488    i.USB_NotConfigured_LED  hw_config.o
    0x08005db2   0x00000002   PAD
    0x08005db4   0x0000002c   Code   RO         1638    i.USB_SIL_Init      usb_sil.o
    0x08005de0   0x0000002e   Code   RO         1639    i.USB_SIL_Read      usb_sil.o
    0x08005e0e   0x0000002e   Code   RO         1640    i.USB_SIL_Write     usb_sil.o
    0x08005e3c   0x000000d2   Code   RO         4745    i.UTCTime2LocalTime  datetime.o
    0x08005f0e   0x00000004   Code   RO           12    i.UsageFault_Handler  stm32f10x_it.o
    0x08005f12   0x00000002   PAD
    0x08005f14   0x00000038   Code   RO         1261    i.UserToPMABufferCopy  usb_mem.o
    0x08005f4c   0x00000060   Code   RO         4373    i.VTG_Parse         gps_receive_task.o
    0x08005fac   0x00000016   Code   RO         4532    i.Wait10Ms          systick.o
    0x08005fc2   0x00000002   PAD
    0x08005fc4   0x00000014   Code   RO         4837    i.WinSocketClrState  sim800.o
    0x08005fd8   0x0000000c   Code   RO         4838    i.WinSocketGetState  sim800.o
    0x08005fe4   0x00000070   Code   RO         4839    i.WinSocketInit     sim800.o
    0x08006054   0x00000064   Code   RO         4840    i.WinSocketSend     sim800.o
    0x080060b8   0x00000130   Code   RO          632    i.Write_Memory      memory.o
    0x080061e8   0x00000038   Code   RO         4374    i.ZDA_Parse         gps_receive_task.o
    0x08006220   0x00000020   Code   RO         5542    i.__0printf         mc_w.l(printfa.o)
    0x08006240   0x00000028   Code   RO         5544    i.__0sprintf        mc_w.l(printfa.o)
    0x08006268   0x00000028   Code   RO         5603    i.__ARM_fpclassify  m_ws.l(fpclassify.o)
    0x08006290   0x00000388   Code   RO         5608    i.__ieee754_rem_pio2  m_ws.l(rred.o)
    0x08006618   0x000000fc   Code   RO         5598    i.__kernel_cos      m_ws.l(cos_i.o)
    0x08006714   0x000000aa   Code   RO         5605    i.__kernel_poly     m_ws.l(poly.o)
    0x080067be   0x00000002   PAD
    0x080067c0   0x000000f0   Code   RO         5613    i.__kernel_sin      m_ws.l(sin_i.o)
    0x080068b0   0x00000010   Code   RO         5601    i.__mathlib_dbl_underflow  m_ws.l(dunder.o)
    0x080068c0   0x0000000c   Code   RO         5636    i.__read_errno      mc_w.l(errno.o)
    0x080068cc   0x0000000e   Code   RO         5674    i.__scatterload_copy  mc_w.l(handlers.o)
    0x080068da   0x00000002   Code   RO         5675    i.__scatterload_null  mc_w.l(handlers.o)
    0x080068dc   0x0000000e   Code   RO         5676    i.__scatterload_zeroinit  mc_w.l(handlers.o)
    0x080068ea   0x00000002   PAD
    0x080068ec   0x0000000c   Code   RO         5637    i.__set_errno       mc_w.l(errno.o)
    0x080068f8   0x00000154   Code   RO         5549    i._fp_digits        mc_w.l(printfa.o)
    0x08006a4c   0x000006d4   Code   RO         5550    i._printf_core      mc_w.l(printfa.o)
    0x08007120   0x00000026   Code   RO         5551    i._printf_post_padding  mc_w.l(printfa.o)
    0x08007146   0x0000002e   Code   RO         5552    i._printf_pre_padding  mc_w.l(printfa.o)
    0x08007174   0x0000000a   Code   RO         5554    i._sputc            mc_w.l(printfa.o)
    0x0800717e   0x00000016   Code   RO         4841    i.atcmd_ack_is      sim800.o
    0x08007194   0x0000006c   Code   RO         4842    i.atcmd_get_ack_section  sim800.o
    0x08007200   0x00000024   Code   RO         4843    i.atcmd_wait_respond  sim800.o
    0x08007224   0x0000002a   Code   RO         5249    i.atof              m_ws.l(atof.o)
    0x0800724e   0x00000002   PAD
    0x08007250   0x00000238   Code   RO         1718    i.auto_mount        ff.o
    0x08007488   0x000000c0   Code   RO         4586    i.beep_task         system.o
    0x08007548   0x00000084   Code   RO         4587    i.beep_taskctrl     system.o
    0x080075cc   0x00000018   Code   RO         4588    i.beep_taskinit     system.o
    0x080075e4   0x0000005c   Code   RO          300    i.cfg_get_line      sys_cfg.o
    0x08007640   0x00000050   Code   RO          301    i.cfg_get_segment   sys_cfg.o
    0x08007690   0x000000ac   Code   RO          302    i.check_flash_cfg   sys_cfg.o
    0x0800773c   0x00000070   Code   RO         1719    i.check_fs          ff.o
    0x080077ac   0x000000ac   Code   RO         4844    i.check_ipnet_status  sim800.o
    0x08007858   0x0000013c   Code   RO          303    i.check_itarcker_cfg  sys_cfg.o
    0x08007994   0x00000038   Code   RO         4845    i.check_sim_card    sim800.o
    0x080079cc   0x00000018   Code   RO         1720    i.chk_chr           ff.o
    0x080079e4   0x0000001a   Code   RO         1721    i.clust2sect        ff.o
    0x080079fe   0x00000002   PAD
    0x08007a00   0x000000ac   Code   RO         5253    i.cos               m_ws.l(cos.o)
    0x08007aac   0x00000114   Code   RO          304    i.cpy_cfg_to_flash  sys_cfg.o
    0x08007bc0   0x000000b6   Code   RO         1722    i.create_chain      ff.o
    0x08007c76   0x00000002   PAD
    0x08007c78   0x00000148   Code   RO         1723    i.create_name       ff.o
    0x08007dc0   0x00000010   Code   RO         4533    i.delay_nus         systick.o
    0x08007dd0   0x00000076   Code   RO         1724    i.dir_find          ff.o
    0x08007e46   0x0000013e   Code   RO         1725    i.dir_next          ff.o
    0x08007f84   0x00000078   Code   RO         1727    i.dir_register      ff.o
    0x08007ffc   0x000000ca   Code   RO         1729    i.dir_seek          ff.o
    0x080080c6   0x00000002   PAD
    0x080080c8   0x00000028   Code   RO         1730    i.disc_mount        ff.o
    0x080080f0   0x0000004c   Code   RO         1662    i.disk_initialize   diskio.o
    0x0800813c   0x00000068   Code   RO         1663    i.disk_ioctl        diskio.o
    0x080081a4   0x00000054   Code   RO         1664    i.disk_read         diskio.o
    0x080081f8   0x00000014   Code   RO         1665    i.disk_status       diskio.o
    0x0800820c   0x00000054   Code   RO         1666    i.disk_write        diskio.o
    0x08008260   0x00000016   Code   RO         1732    i.f_close           ff.o
    0x08008276   0x000000e8   Code   RO         1734    i.f_getfree         ff.o
    0x0800835e   0x00000002   PAD
    0x08008360   0x0000002c   Code   RO         1738    i.f_mount           ff.o
    0x0800838c   0x00000140   Code   RO         1739    i.f_open            ff.o
    0x080084cc   0x000001be   Code   RO         1741    i.f_printf          ff.o
    0x0800868a   0x0000002a   Code   RO         1742    i.f_putc            ff.o
    0x080086b4   0x0000002a   Code   RO         1743    i.f_puts            ff.o
    0x080086de   0x000001d6   Code   RO         1744    i.f_read            ff.o
    0x080088b4   0x0000003a   Code   RO         1747    i.f_stat            ff.o
    0x080088ee   0x0000008c   Code   RO         1748    i.f_sync            ff.o
    0x0800897a   0x00000210   Code   RO         1752    i.f_write           ff.o
    0x08008b8a   0x00000098   Code   RO         1753    i.follow_path       ff.o
    0x08008c22   0x00000002   PAD
    0x08008c24   0x00000024   Code   RO         1994    i.fputc             uart1.o
    0x08008c48   0x0000001c   Code   RO         5056    i.gSensor_taskinit  gsensor.o
    0x08008c64   0x0000005c   Code   RO         4846    i.get_CSQ           sim800.o
    0x08008cc0   0x00000134   Code   RO         4847    i.get_cipstatus     sim800.o
    0x08008df4   0x00000100   Code   RO         1754    i.get_cluster       ff.o
    0x08008ef4   0x0000003c   Code   RO         1667    i.get_fattime       diskio.o
    0x08008f30   0x00000098   Code   RO         1755    i.get_fileinfo      ff.o
    0x08008fc8   0x0000006c   Code   RO         4848    i.get_gprs_status   sim800.o
    0x08009034   0x00000008   Code   RO         5057    i.get_gsensor_state  gsensor.o
    0x0800903c   0x0000006c   Code   RO         4849    i.get_gsm_status    sim800.o
    0x080090a8   0x0000007c   Code   RO         4782    i.get_spiflash_info  w25xx.o
    0x08009124   0x000005a0   Code   RO         4850    i.gprs_task         sim800.o
    0x080096c4   0x000000cc   Code   RO         4851    i.gprs_taskctrl     sim800.o
    0x08009790   0x00000020   Code   RO         4852    i.gprs_taskinit     sim800.o
    0x080097b0   0x0000000c   Code   RO         2037    i.gps_comm_clr      uart2.o
    0x080097bc   0x0000003c   Code   RO         2038    i.gps_comm_get_len  uart2.o
    0x080097f8   0x00000028   Code   RO         2039    i.gps_comm_read     uart2.o
    0x08009820   0x00000028   Code   RO         4375    i.gps_info_init     gps_receive_task.o
    0x08009848   0x00000064   Code   RO         4376    i.gps_parse_proc    gps_receive_task.o
    0x080098ac   0x00000378   Code   RO         4377    i.gps_task          gps_receive_task.o
    0x08009c24   0x00000018   Code   RO         4378    i.gps_taskctrl      gps_receive_task.o
    0x08009c3c   0x00000020   Code   RO         4379    i.gps_taskinit      gps_receive_task.o
    0x08009c5c   0x0000010c   Code   RO         5003    i.gpspos_to_yeelinktype  yeelink.o
    0x08009d68   0x00000080   Code   RO         5058    i.gsensor_task      gsensor.o
    0x08009de8   0x00000108   Code   RO         4589    i.hw_io_ctrl        system.o
    0x08009ef0   0x00000124   Code   RO         4590    i.hw_io_init        system.o
    0x0800a014   0x00000020   Code   RO         5004    i.iPos_clr          yeelink.o
    0x0800a034   0x00000024   Code   RO         5005    i.iPos_get_num      yeelink.o
    0x0800a058   0x00000090   Code   RO         4480    i.iTrack_task       let_us_go.o
    0x0800a0e8   0x00000030   Code   RO         4481    i.iTrack_taskctrl   let_us_go.o
    0x0800a118   0x0000000c   Code   RO         4482    i.iTrack_taskinit   let_us_go.o
    0x0800a124   0x0000002a   Code   RO         4700    i.ischar            my_string.o
    0x0800a14e   0x00000012   Code   RO         4701    i.isdec             my_string.o
    0x0800a160   0x0000002e   Code   RO         4702    i.isdecstring       my_string.o
    0x0800a18e   0x00000002   PAD
    0x0800a190   0x00000260   Code   RO         4591    i.led_task          system.o
    0x0800a3f0   0x000000fc   Code   RO         4592    i.led_taskctrl      system.o
    0x0800a4ec   0x0000001c   Code   RO         4593    i.led_taskinit      system.o
    0x0800a508   0x000004a4   Code   RO          305    i.load_sys_config   sys_cfg.o
    0x0800a9ac   0x000002d4   Code   RO           81    i.main              main.o
    0x0800ac80   0x00000026   Code   RO         1756    i.mem_cmp           ff.o
    0x0800aca6   0x0000001a   Code   RO         1757    i.mem_cpy           ff.o
    0x0800acc0   0x00000016   Code   RO         1758    i.mem_set           ff.o
    0x0800acd6   0x00000002   PAD
    0x0800acd8   0x00000140   Code   RO         4853    i.modem_poweroff_flow  sim800.o
    0x0800ae18   0x000003f8   Code   RO         4854    i.modem_poweron_flow  sim800.o
    0x0800b210   0x00000198   Code   RO         4483    i.motion_analysis_by_gps  let_us_go.o
    0x0800b3a8   0x0000006c   Code   RO         1759    i.move_window       ff.o
    0x0800b414   0x00000060   Code   RO         4594    i.myPWR_EnterSleepMode  system.o
    0x0800b474   0x000000b6   Code   RO         4380    i.nmea_get_frame    gps_receive_task.o
    0x0800b52a   0x00000002   PAD
    0x0800b52c   0x0000013c   Code   RO         4381    i.nmea_get_info     gps_receive_task.o
    0x0800b668   0x00000034   Code   RO         4382    i.nmea_get_section  gps_receive_task.o
    0x0800b69c   0x00000134   Code   RO         4484    i.now_position_to_xml  let_us_go.o
    0x0800b7d0   0x000009d8   Code   RO         5261    i.pow               m_ws.l(pow.o)
    0x0800c1a8   0x00000048   Code   RO         4855    i.printf_strbf      sim800.o
    0x0800c1f0   0x00000140   Code   RO         1760    i.put_cluster       ff.o
    0x0800c330   0x00000026   Code   RO         4485    i.remember_now_gps_pos  let_us_go.o
    0x0800c356   0x00000068   Code   RO         1761    i.remove_chain      ff.o
    0x0800c3be   0x00000002   PAD
    0x0800c3c0   0x00000094   Code   RO         4856    i.send_atcmd        sim800.o
    0x0800c454   0x00000068   Code   RO         5059    i.set_gsensor_ctrl  gsensor.o
    0x0800c4bc   0x000000b0   Code   RO         5271    i.sin               m_ws.l(sin.o)
    0x0800c56c   0x000000ac   Code   RO         4857    i.socket_open       sim800.o
    0x0800c618   0x000000ac   Code   RO         4858    i.socket_query      sim800.o
    0x0800c6c4   0x00000080   Code   RO         4859    i.socket_send       sim800.o
    0x0800c744   0x000000c8   Code   RO         4783    i.spi_port_init     w25xx.o
    0x0800c80c   0x00000038   Code   RO         4784    i.spi_readwrite     w25xx.o
    0x0800c844   0x0000004a   Code   RO         5279    i.sqrt              m_ws.l(sqrt.o)
    0x0800c88e   0x00000002   PAD
    0x0800c890   0x0000007c   Code   RO         1762    i.sync              ff.o
    0x0800c90c   0x00000048   Code   RO         4746    i.sys_time          datetime.o
    0x0800c954   0x00000038   Code   RO         4595    i.syscfg_init       system.o
    0x0800c98c   0x00000404   Code   RO         4596    i.system_task       system.o
    0x0800cd90   0x000001f0   Code   RO         4597    i.system_taskctrl   system.o
    0x0800cf80   0x00000030   Code   RO         4598    i.system_taskinit   system.o
    0x0800cfb0   0x00000058   Code   RO         4860    i.test_modem        sim800.o
    0x0800d008   0x00000074   Code   RO         4747    i.tm2str            datetime.o
    0x0800d07c   0x0000002c   Code   RO         2098    i.uart3_clr         uart3.o
    0x0800d0a8   0x00000024   Code   RO         2100    i.uart3_fputc       uart3.o
    0x0800d0cc   0x0000003c   Code   RO         2101    i.uart3_get_reclen  uart3.o
    0x0800d108   0x00000038   Code   RO         2103    i.uart3_printf      uart3.o
    0x0800d140   0x00000030   Code   RO         2105    i.uart3_sendbf      uart3.o
    0x0800d170   0x0000002a   Code   RO         1763    i.validate          ff.o
    0x0800d19a   0x00000002   PAD
    0x0800d19c   0x0000000c   Code   RO         4785    i.w25xx_get_device_id  w25xx.o
    0x0800d1a8   0x000000d0   Code   RO         4786    i.w25xx_init        w25xx.o
    0x0800d278   0x0000011c   Code   RO         4787    i.w25xx_page_write  w25xx.o
    0x0800d394   0x0000006c   Code   RO         4788    i.w25xx_read        w25xx.o
    0x0800d400   0x00000074   Code   RO         4789    i.w25xx_read_status  w25xx.o
    0x0800d474   0x00000020   Code   RO         5006    i.yeelink_http_init  yeelink.o
    0x0800d494   0x00000244   Code   RO         5007    i.yeelink_task      yeelink.o
    0x0800d6d8   0x0000002c   Code   RO         5008    i.yeelink_taskinit  yeelink.o
    0x0800d704   0x000000c8   Data   RO           82    .constdata          main.o
    0x0800d7cc   0x000000ae   Data   RO          759    .constdata          usb_desc.o
    0x0800d87a   0x000001a9   Data   RO         5222    .constdata          gpx_record_task.lib(gpx_record_task.o)
    0x0800da23   0x00000005   PAD
    0x0800da28   0x00000088   Data   RO         5262    .constdata          m_ws.l(pow.o)
    0x0800dab0   0x00000030   Data   RO         5599    .constdata          m_ws.l(cos_i.o)
    0x0800dae0   0x00000008   Data   RO         5607    .constdata          m_ws.l(qnan.o)
    0x0800dae8   0x000000c8   Data   RO         5610    .constdata          m_ws.l(rred.o)
    0x0800dbb0   0x00000028   Data   RO         5614    .constdata          m_ws.l(sin_i.o)
    0x0800dbd8   0x00000040   Data   RO         5668    .constdata          mc_w.l(ctype_c.o)
    0x0800dc18   0x00000020   Data   RO         5672    Region$$Table       anon$$obj.o


    Execution Region RW_IRAM1 (Base: 0x20000000, Size: 0x000045f0, Max: 0x00005000, ABSOLUTE, COMPRESSED[0x000000f8])

    Base Addr    Size         Type   Attr      Idx    E Section Name        Object

    0x20000000   0x00000001   Data   RW           83    .data               main.o
    0x20000001   0x00000003   PAD
    0x20000004   0x00000010   Data   RW          306    .data               sys_cfg.o
    0x20000014   0x00000014   Data   RW          368    .data               system_stm32f10x.o
    0x20000028   0x00000024   Data   RW          634    .data               memory.o
    0x2000004c   0x0000007e   Data   RW          700    .data               scsi_data.o
    0x200000ca   0x00000002   PAD
    0x200000cc   0x0000000c   Data   RW          719    .data               usb_bot.o
    0x200000d8   0x0000001a   Data   RW          760    .data               usb_desc.o
    0x200000f2   0x00000002   PAD
    0x200000f4   0x0000003e   Data   RW          794    .data               usb_istr.o
    0x20000132   0x00000002   PAD
    0x20000134   0x00000094   Data   RW          830    .data               usb_prop.o
    0x200001c8   0x00000007   Data   RW          930    .data               usb_pwr.o
    0x200001cf   0x00000001   PAD
    0x200001d0   0x00000004   Data   RW         1107    .data               usb_core.o
    0x200001d4   0x00000014   Data   RW         1209    .data               usb_init.o
    0x200001e8   0x00000004   Data   RW         1232    .data               usb_int.o
    0x200001ec   0x00000018   Data   RW         1668    .data               diskio.o
    0x20000204   0x0000000a   Data   RW         1765    .data               ff.o
    0x2000020e   0x00000002   PAD
    0x20000210   0x0000000c   Data   RW         1995    .data               uart1.o
    0x2000021c   0x00000014   Data   RW         2043    .data               uart2.o
    0x20000230   0x00000012   Data   RW         2109    .data               uart3.o
    0x20000242   0x00000014   Data   RW         2911    .data               stm32f10x_rcc.o
    0x20000256   0x00000002   PAD
    0x20000258   0x0000000c   Data   RW         4384    .data               gps_receive_task.o
    0x20000264   0x00000004   Data   RW         4487    .data               let_us_go.o
    0x20000268   0x00000008   Data   RW         4534    .data               systick.o
    0x20000270   0x00000038   Data   RW         4600    .data               system.o
    0x200002a8   0x00000004   Data   RW         4790    .data               w25xx.o
    0x200002ac   0x00000020   Data   RW         4863    .data               sim800.o
    0x200002cc   0x00000004   Data   RW         5010    .data               yeelink.o
    0x200002d0   0x00000018   Data   RW         5061    .data               gsensor.o
    0x200002e8   0x00000018   Data   RW         5203    .data               gps_algorithm.lib(gps_algorithm.o)
    0x20000300   0x00000004   Data   RW         5223    .data               gpx_record_task.lib(gpx_record_task.o)
    0x20000304   0x00000004   Data   RW         5624    .data               mc_w.l(stdout.o)
    0x20000308   0x00000004   Data   RW         5638    .data               mc_w.l(errno.o)
    0x2000030c   0x00000024   Zero   RW          589    .bss                mass_mal.o
    0x20000330   0x00001000   Zero   RW          633    .bss                memory.o
    0x20001330   0x00000070   Zero   RW          718    .bss                usb_bot.o
    0x200013a0   0x0000001c   Zero   RW         1208    .bss                usb_init.o
    0x200013bc   0x00000038   Zero   RW         1764    .bss                ff.o
    0x200013f4   0x000001f5   Zero   RW         2042    .bss                uart2.o
    0x200015e9   0x00000191   Zero   RW         2108    .bss                uart3.o
    0x2000177a   0x00000006   PAD
    0x20001780   0x0000038e   Zero   RW         4383    .bss                gps_receive_task.o
    0x20001b0e   0x00000002   PAD
    0x20001b10   0x00000128   Zero   RW         4486    .bss                let_us_go.o
    0x20001c38   0x0000004c   Zero   RW         4599    .bss                system.o
    0x20001c84   0x00000044   Zero   RW         4749    .bss                datetime.o
    0x20001cc8   0x00000084   Zero   RW         4861    .bss                sim800.o
    0x20001d4c   0x00000004   PAD
    0x20001d50   0x0000065b   Zero   RW         5009    .bss                yeelink.o
    0x200023ab   0x00000001   PAD
    0x200023ac   0x00000020   Zero   RW         5060    .bss                gsensor.o
    0x200023cc   0x00001024   Zero   RW         5221    .bss                gpx_record_task.lib(gpx_record_task.o)
    0x200033f0   0x00001200   Zero   RW         4359    STACK               startup_stm32f10x_hd.o


==============================================================================

Image component sizes


      Code (inc. data)   RO Data    RW Data    ZI Data      Debug   Object Name

         0          0          0          0          0         32   core_cm3.o
       442         74          0          0         68       3053   datetime.o
       428         66          0         24          0       6029   diskio.o
      5726         72          0         10         56      29524   ff.o
      2800        398          0         12        910      12079   gps_receive_task.o
       566         46          0         24         32       7408   gsensor.o
       332         26          0          0          0       5044   hw_config.o
       958        286          0          4        296       4070   let_us_go.o
       884        234        200          1          0     255222   main.o
       342         20          0          0         36       3282   mass_mal.o
       572         80          0         36       4096       6212   memory.o
       152         24          0          0          0       1535   misc.o
       398          0          0          0          0       3100   my_string.o
         0          0          0        126          0        950   scsi_data.o
      5078       1740          0         32        132      16047   sim800.o
       914        112          0          0          0       6326   sof_iic.o
        36          8        304          0       4608        724   startup_stm32f10x_hd.o
       334         10          0          0          0       5788   stm32f10x_adc.o
       228         28          0          0          0       2084   stm32f10x_exti.o
       314         32          0          0          0       4822   stm32f10x_flash.o
       364          4          0          0          0       4238   stm32f10x_gpio.o
        54          0          0          0          0       5921   stm32f10x_it.o
        68         30          0          0          0       2430   stm32f10x_iwdg.o
        72         10          0          0          0        636   stm32f10x_pwr.o
       432         60          0         20          0       7135   stm32f10x_rcc.o
       224         12          0          0          0       4910   stm32f10x_spi.o
       494          6          0          0          0       7281   stm32f10x_usart.o
      2124        702          0         16          0       5148   sys_cfg.o
      4300        588          0         56         76      12731   system.o
       304         26          0         20          0     254537   system_stm32f10x.o
       264         34          0          8          0      19034   systick.o
       404         44          0         12          0       3774   uart1.o
       534         54          0         20        501       3975   uart2.o
       660         84          0         18        401       5075   uart3.o
      1148        108          0         12        112       4075   usb_bot.o
      3086        284          0          4          0      14107   usb_core.o
         0          0        174         26          0        856   usb_desc.o
        16          0          0          0          0        813   usb_endp.o
        60         24          0         20         28       4034   usb_init.o
       848         62          0          4          0       2185   usb_int.o
       104         22          0         62          0       1277   usb_istr.o
        92          8          0          0          0       1732   usb_mem.o
       690        120          0        148          0      10442   usb_prop.o
        80         16          0          7          0       1765   usb_pwr.o
       688        100          0          0          0       8856   usb_regs.o
      1086        130          0          0          0       8715   usb_scsi.o
       136         14          0          0          0       2094   usb_sil.o
      1108         72          0          4          0       5707   w25xx.o
       992        268          0          4       1627       3701   yeelink.o

    ----------------------------------------------------------------------
     40998       6138        710        744      12992     780515   Object Totals
         0          0         32          0          0          0   (incl. Generated)
        62          0          0         14         13          2   (incl. Padding)

    ----------------------------------------------------------------------

      Code (inc. data)   RO Data    RW Data    ZI Data      Debug   Library Member Name

      2304        170          0         24          0       2513   gps_algorithm.o
       784        226        425          4       4132       9034   gpx_record_task.o
        42          0          0          0          0         84   atof.o
       172          8          0          0          0        116   cos.o
       252         22         48          0          0        128   cos_i.o
        16          6          0          0          0         68   dunder.o
        40          0          0          0          0         68   fpclassify.o
       170          0          0          0          0         96   poly.o
      2520        190        136          0          0        348   pow.o
         0          0          8          0          0          0   qnan.o
       904         72        200          0          0        140   rred.o
       176         10          0          0          0        120   sin.o
       240         14         40          0          0        132   sin_i.o
        74          0          0          0          0         84   sqrt.o
        92          0          0          0          0          0   __dczerorl2.o
        64          0          0          0          0         84   _sgetc.o
        40          6         64          0          0         68   ctype_c.o
         0          0          0          0          0          0   entry.o
         8          4          0          0          0          0   entry2.o
         4          0          0          0          0          0   entry5.o
         8          4          0          0          0          0   entry7.o
        24         12          0          4          0        136   errno.o
        30          0          0          0          0          0   handlers.o
        36          8          0          0          0         68   init.o
        10          0          0          0          0         68   isspace_c.o
         0          0          0          0          0          0   iusefp.o
        30          0          0          0          0         68   llshl.o
        36          0          0          0          0         68   llsshr.o
        32          0          0          0          0         68   llushr.o
        36          0          0          0          0         68   memcpya.o
        38          0          0          0          0        108   memseta.o
      2254         98          0          0          0        612   printfa.o
       848         12          0          0          0        148   scanf_fp.o
        12          0          0          0          0         68   siabs.o
         0          0          0          4          0          0   stdout.o
        28          0          0          0          0         68   strcat.o
        28          0          0          0          0         76   strcmp.o
        18          0          0          0          0         68   strcpy.o
        16          0          0          0          0         68   strlen.o
        44          0          0          0          0         80   strstr.o
       152         12          0          0          0        120   strtod.o
        44          0          0          0          0         80   uidiv.o
       102          0          0          0          0         92   uldiv.o
        40          2          0          0          0         68   cdcmple.o
        40          2          0          0          0         68   cdrcmple.o
        20          0          0          0          0         68   cfrcmple.o
        56          0          0          0          0         88   d2f.o
       330          0          0          0          0        148   dadd.o
       222          0          0          0          0        100   ddiv.o
       194          0          0          0          0        184   depilogue.o
        62          0          0          0          0         80   dfixi.o
        48          0          0          0          0         68   dfixul.o
        34          0          0          0          0         76   dflti.o
        26          0          0          0          0         76   dfltui.o
        24          0          0          0          0         76   dfltul.o
       226          0          0          0          0         96   dmul.o
        46          0          0          0          0         80   dscalb.o
       160          0          0          0          0        100   dsqrt.o
        44          0          0          0          0         68   f2d.o
       128          0          0          0          0         88   fdiv.o
       112          0          0          0          0        168   fepilogue.o
        50          0          0          0          0         68   ffixi.o
        18          0          0          0          0         68   fflti.o
        10          0          0          0          0         68   ffltui.o
       108          0          0          0          0         76   fmul.o

    ----------------------------------------------------------------------
     13742        878        926         36       4132      17195   Library Totals
        16          0          5          0          0          0   (incl. Padding)

    ----------------------------------------------------------------------

      Code (inc. data)   RO Data    RW Data    ZI Data      Debug   Library Name

      2304        170          0         24          0       2513   gps_algorithm.lib
       784        226        425          4       4132       9034   gpx_record_task.lib
      4606        322        432          0          0       1384   m_ws.l
      4034        156         64          8          0       2284   mc_w.l
      1998          4          0          0          0       1980   mf_w.l

    ----------------------------------------------------------------------
     13742        878        926         36       4132      17195   Library Totals

    ----------------------------------------------------------------------

==============================================================================


      Code (inc. data)   RO Data    RW Data    ZI Data      Debug   

     54740       7016       1636        780      17124     776600   Grand Totals
     54740       7016       1636        248      17124     776600   ELF Image Totals (compressed)
     54740       7016       1636        248          0          0   ROM Totals

==============================================================================

    Total RO  Size (Code + RO Data)                56376 (  55.05kB)
    Total RW  Size (RW Data + ZI Data)             17904 (  17.48kB)
    Total ROM Size (Code + RO Data + RW Data)      56624 (  55.30kB)

==============================================================================

